(dp0
S'AGO'
p1
S'Assured Guaranty Ltd'
p2
sS'AGN'
p3
S'Allergan plc'
p4
sS'AGM'
p5
S'Federal Agricultural Mortgage Corp'
p6
sS'SBRA'
p7
S'Sabra Health Care REIT Inc'
p8
sS'NYT'
p9
S'New York Times Co'
p10
sS'AGX'
p11
S'Argan Inc'
p12
sS'PRIM'
p13
S'Primoris Services Corp'
p14
sS'ERIE'
p15
S'Erie Indemnity Co'
p16
sS'AGR'
p17
S'Avangrid Inc'
p18
sS'SPR'
p19
S'Spirit AeroSystems Holdings Inc'
p20
sS'CRBP'
p21
S'Corbus Pharmaceuticals Holdings Inc'
p22
sS'VRTX'
p23
S'Vertex Pharmaceuticals Inc'
p24
sS'BWA'
p25
S'BorgWarner Inc'
p26
sS'SPN'
p27
S'Superior Energy Services Inc'
p28
sS'SPB'
p29
S'Spectrum Brands Holdings Inc'
p30
sS'VRTS'
p31
S'Virtus Investment Partners Inc'
p32
sS'VRTU'
p33
S'Virtusa Corp'
p34
sS'VRTV'
p35
S'Veritiv Corp'
p36
sS'SPG'
p37
S'Simon Property Group Inc'
p38
sS'CTLT'
p39
S'Catalent Inc'
p40
sS'GT'
p41
S'Goodyear Tire & Rubber Co'
p42
sS'XPO'
p43
S'XPO Logistics Inc'
p44
sS'TRTX'
p45
S'TPG RE Finance Trust Inc'
p46
sS'TRTN'
p47
S'Triton International Ltd'
p48
sS'GE'
p49
S'General Electric Co'
p50
sS'GD'
p51
S'General Dynamics Corp'
p52
sS'BYD'
p53
S'Boyd Gaming Corp'
p54
sS'HONE'
p55
S'HarborOne Bancorp Inc'
p56
sS'MAS'
p57
S'Masco Corp'
p58
sS'MAR'
p59
S'Marriott International Inc'
p60
sS'MAT'
p61
S'Mattel Inc'
p62
sS'SNA'
p63
S'Snap-On Inc'
p64
sS'SNH'
p65
S'Senior Housing Properties Trust'
p66
sS'SNV'
p67
S'Synovus Financial Corp'
p68
sS'MAC'
p69
S'Macerich Co'
p70
sS'ACLS'
p71
S'Axcelis Technologies Inc'
p72
sS'SNR'
p73
S'New Senior Investment Group Inc'
p74
sS'OKTA'
p75
S'Okta Inc'
p76
sS'JNJ'
p77
S'Johnson & Johnson'
p78
sS'SNX'
p79
S'SYNNEX Corp'
p80
sS'MAN'
p81
S'ManpowerGroup Inc'
p82
sS'EVH'
p83
S'Evolent Health Inc'
p84
sS'TRHC'
p85
S'Tabula Rasa HealthCare Inc'
p86
sS'JBSS'
p87
S'John B Sanfilippo & Son Inc'
p88
sS'BEN'
p89
S'Franklin Resources Inc'
p90
sS'JWN'
p91
S'Nordstrom Inc'
p92
sS'BEL'
p93
S'Belmond Ltd'
p94
sS'CSL'
p95
S'Carlisle Companies Inc'
p96
sS'TDG'
p97
S'TransDigm Group Inc'
p98
sS'ERII'
p99
S'Energy Recovery Inc'
p100
sS'EVR'
p101
S'Evercore Inc'
p102
sS'IDCC'
p103
S'InterDigital Inc'
p104
sS'GHDX'
p105
S'Genomic Health Inc'
p106
sS'VLO'
p107
S'Valero Energy Corp'
p108
sS'TTS'
p109
S'Tile Shop Holdings Inc'
p110
sS'UEIC'
p111
S'Universal Electronics Inc'
p112
sS'LSI'
p113
S'Life Storage Inc'
p114
sS'VLY'
p115
S'Valley National Bancorp'
p116
sS'TTI'
p117
S'Tetra Technologies Inc'
p118
sS'TTC'
p119
S'Toro Co'
p120
sS'TTD'
p121
S'Trade Desk Inc'
p122
sS'WSBF'
p123
S'Waterstone Financial Inc'
p124
sS'TPRE'
p125
S'Third Point Reinsurance Ltd'
p126
sS'WSBC'
p127
S'WesBanco Inc'
p128
sS'ZG'
p129
S'Zillow Group Inc'
p130
sS'TDS'
p131
S'Telephone and Data Systems Inc'
p132
sS'CEVA'
p133
S'CEVA Inc'
p134
sS'GRC'
p135
S'Gorman-Rupp Co'
p136
sS'GRA'
p137
S'W. R. Grace & Co'
p138
sS'CEIX'
p139
S'CONSOL Energy Inc'
p140
sS'CPRT'
p141
S'Copart Inc'
p142
sS'ZS'
p143
S'Zscaler Inc'
p144
sS'HLX'
p145
S'Helix Energy Solutions Group Inc'
p146
sS'ITGR'
p147
S'Integer Holdings Corp'
p148
sS'HLT'
p149
S'Hilton Worldwide Holdings Inc'
p150
sS'NOC'
p151
S'Northrop Grumman Corp'
p152
sS'QHC'
p153
S'Quorum Health Corp'
p154
sS'HLI'
p155
S'Houlihan Lokey Inc'
p156
sS'HLF'
p157
S'Herbalife Ltd'
p158
sS'NOV'
p159
S'National Oilwell Varco Inc'
p160
sS'NOW'
p161
S'ServiceNow Inc'
p162
sS'ATKR'
p163
S'Atkore International Group Inc'
p164
sS'JACK'
p165
S'Jack in the Box Inc'
p166
sS'OLLI'
p167
S"Ollie's Bargain Outlet Holdings Inc"
p168
sS'CTS'
p169
S'CTS Corp'
p170
sS'SPPI'
p171
S'Spectrum Pharmaceuticals Inc'
p172
sS'BWXT'
p173
S'BWX Technologies Inc'
p174
sS'RAVN'
p175
S'Raven Industries Inc'
p176
sS'LBAI'
p177
S'Lakeland Bancorp Inc'
p178
sS'CTB'
p179
S'Cooper Tire & Rubber Co'
p180
sS'CTL'
p181
S'CenturyLink Inc'
p182
sS'WHD'
p183
S'Cactus Inc'
p184
sS'WHG'
p185
S'Westwood Holdings Group Inc'
p186
sS'VSEC'
p187
S'VSE Corp'
p188
sS'MOBL'
p189
S'MobileIron Inc'
p190
sS'KTOS'
p191
S'Kratos Defense and Security Solutions Inc'
p192
sS'WHR'
p193
S'Whirlpool Corp'
p194
sS'TAST'
p195
S'Carrols Restaurant Group Inc'
p196
sS'BFAM'
p197
S'Bright Horizons Family Solutions Inc'
p198
sS'V'
p199
S'Visa Inc'
p200
sS'DOVA'
p201
S'Dova Pharmaceuticals Inc'
p202
sS'RLI'
p203
S'RLI Corp'
p204
sS'NTAP'
p205
S'NetApp Inc'
p206
sS'ZBRA'
p207
S'Zebra Technologies Corp'
p208
sS'LMT'
p209
S'Lockheed Martin Corp'
p210
sS'EDR'
p211
S'Education Realty Trust Inc'
p212
sS'CENX'
p213
S'Century Aluminum Co'
p214
sS'ORI'
p215
S'Old Republic International Corp'
p216
sS'ORC'
p217
S'Orchid Island Capital Inc'
p218
sS'ORA'
p219
S'Ormat Technologies Inc'
p220
sS'DPS'
p221
S'Dr Pepper Snapple Group Inc'
p222
sS'ARCB'
p223
S'ArcBest Corp'
p224
sS'FARM'
p225
S'Farmer Bros Co'
p226
sS'FARO'
p227
S'FARO Technologies Inc'
p228
sS'DPZ'
p229
S"Domino's Pizza Inc"
p230
sS'EVBG'
p231
S'Everbridge Inc'
p232
sS'FCBC'
p233
S'First Community Bancshares Inc'
p234
sS'GBLI'
p235
S'Global Indemnity Ltd'
p236
sS'COHR'
p237
S'Coherent Inc'
p238
sS'GS'
p239
S'Goldman Sachs Group Inc'
p240
sS'ABAX'
p241
S'Abaxis Inc'
p242
sS'LE'
p243
S'Lands End Inc'
p244
sS'LB'
p245
S'L Brands Inc'
p246
sS'LC'
p247
S'LendingClub Corp'
p248
sS'AGCO'
p249
S'AGCO Corp'
p250
sS'ONB'
p251
S'Old National Bancorp'
p252
sS'LL'
p253
S'Lumber Liquidators Holdings Inc'
p254
sS'LM'
p255
S'Legg Mason Inc'
p256
sS'LH'
p257
S'Laboratory Corporation of America Holdings'
p258
sS'LW'
p259
S'Lamb Weston Holdings Inc'
p260
sS'LQ'
p261
S'La Quinta Holdings Inc'
p262
sS'RDFN'
p263
S'Redfin Corp'
p264
sS'ATEN'
p265
S'A10 Networks Inc'
p266
sS'BATRK'
p267
S'Liberty Media Corp'
p268
sS'A'
p269
S'Agilent Technologies Inc'
p270
sS'FORM'
p271
S'FormFactor Inc'
p272
sS'KEYS'
p273
S'Keysight Technologies Inc'
p274
sS'KEYW'
p275
S'KEYW Holding Corp'
p276
sS'ANTM'
p277
S'Anthem Inc'
p278
sS'BLBD'
p279
S'Blue Bird Corp'
p280
sS'NBHC'
p281
S'National Bank Holdings Corp'
p282
sS'FRGI'
p283
S'Fiesta Restaurant Group Inc'
p284
sS'FORR'
p285
S'Forrester Research Inc'
p286
sS'EZPW'
p287
S'EZCORP Inc'
p288
sS'CALX'
p289
S'Calix Inc'
p290
sS'MNKD'
p291
S'MannKind Corp'
p292
sS'GEF.B'
p293
S'Greif Inc'
p294
sS'CFG'
p295
S'Citizens Financial Group Inc'
p296
sS'PNR'
p297
S'Pentair plc'
p298
sS'SRNE'
p299
S'Sorrento Therapeutics Inc'
p300
sS'PNW'
p301
S'Pinnacle West Capital Corp'
p302
sS'PNK'
p303
S'Pinnacle Entertainment Inc'
p304
sS'PNM'
p305
S'PNM Resources Inc'
p306
sS'CALM'
p307
S'Cal-Maine Foods Inc'
p308
sS'CFX'
p309
S'Colfax Corp'
p310
sS'TWTR'
p311
S'Twitter Inc'
p312
sS'BKNG'
p313
S'Booking Holdings Inc'
p314
sS'PNC'
p315
S'PNC Financial Services Group Inc'
p316
sS'RUTH'
p317
S"Ruth's Hospitality Group Inc"
p318
sS'CFR'
p319
S'Cullen/Frost Bankers Inc'
p320
sS'FIZZ'
p321
S'National Beverage Corp'
p322
sS'TRUP'
p323
S'Trupanion Inc'
p324
sS'NEWR'
p325
S'New Relic Inc'
p326
sS'CBOE'
p327
S'Cboe Global Markets Inc'
p328
sS'QTWO'
p329
S'Q2 Holdings Inc'
p330
sS'CSII'
p331
S'Cardiovascular Systems Inc'
p332
sS'MSBI'
p333
S'Midland States Bancorp Inc'
p334
sS'GIII'
p335
S'G-III Apparel Group Ltd'
p336
sS'TRUE'
p337
S'TrueCar Inc'
p338
sS'AMZN'
p339
S'Amazon.com Inc'
p340
sS'HFWA'
p341
S'Heritage Financial Corp'
p342
sS'SAH'
p343
S'Sonic Automotive Inc'
p344
sS'PRA'
p345
S'ProAssurance Corp'
p346
sS'SAM'
p347
S'Boston Beer Company Inc'
p348
sS'PRO'
p349
S'Pros Holdings Inc'
p350
sS'XENT'
p351
S'Intersect ENT Inc'
p352
sS'PRI'
p353
S'Primerica Inc'
p354
sS'ASTE'
p355
S'Astec Industries Inc'
p356
sS'PRK'
p357
S'Park National Corp'
p358
sS'PRU'
p359
S'Prudential Financial Inc'
p360
sS'JOE'
p361
S'St. Joe Co'
p362
sS'CHD'
p363
S'Church & Dwight Co Inc'
p364
sS'CHE'
p365
S'Chemed Corp'
p366
sS'CHFC'
p367
S'Chemical Financial Corp'
p368
sS'CHK'
p369
S'Chesapeake Energy Corp'
p370
sS'SND'
p371
S'Smart Sand Inc'
p372
sS'ESND'
p373
S'Essendant Inc'
p374
sS'MUX'
p375
S'McEwen Mining Inc'
p376
sS'CHS'
p377
S"Chico's FAS Inc"
p378
sS'DAKT'
p379
S'Daktronics Inc'
p380
sS'MRK'
p381
S'Merck & Co Inc'
p382
sS'JAG'
p383
S'Jagged Peak Energy Inc'
p384
sS'FELE'
p385
S'Franklin Electric Co Inc'
p386
sS'NNBR'
p387
S'NN Inc'
p388
sS'ESNT'
p389
S'Essent Group Ltd'
p390
sS'MRC'
p391
S'MRC Global Inc'
p392
sS'FCE.A'
p393
S'Forest City Realty Trust Inc'
p394
sS'BWINB'
p395
S'Baldwin & Lyons Inc'
p396
sS'TNET'
p397
S'TriNet Group Inc'
p398
sS'AMCX'
p399
S'AMC Networks Inc'
p400
sS'BRKL'
p401
S'Brookline Bancorp Inc'
p402
sS'MCFT'
p403
S'MCBC Holdings Inc'
p404
sS'BRKS'
p405
S'Brooks Automation Inc'
p406
sS'BRKR'
p407
S'Bruker Corp'
p408
sS'SUPN'
p409
S'Supernus Pharmaceuticals Inc'
p410
sS'SNAP'
p411
S'Snap Inc'
p412
sS'APC'
p413
S'Anadarko Petroleum Corp'
p414
sS'ORBC'
p415
S'ORBCOMM Inc'
p416
sS'APA'
p417
S'Apache Corp'
p418
sS'MTRX'
p419
S'Matrix Service Co'
p420
sS'APD'
p421
S'Air Products and Chemicals Inc'
p422
sS'ADNT'
p423
S'Adient PLC'
p424
sS'DXPE'
p425
S'DXP Enterprises Inc'
p426
sS'FRAN'
p427
S"Francesca's Holdings Corp"
p428
sS'EWBC'
p429
S'East West Bancorp Inc'
p430
sS'XRAY'
p431
S'Dentsply Sirona Inc'
p432
sS'NLS'
p433
S'Nautilus Inc'
p434
sS'AVGO'
p435
S'Broadcom Ltd'
p436
sS'NLY'
p437
S'Annaly Capital Management Inc'
p438
sS'VG'
p439
S'Vonage Holdings Corp'
p440
sS'UCTT'
p441
S'Ultra Clean Holdings Inc'
p442
sS'HMN'
p443
S'Horace Mann Educators Corp'
p444
sS'TKR'
p445
S'Timken Co'
p446
sS'LPLA'
p447
S'LPL Financial Holdings Inc'
p448
sS'HSKA'
p449
S'Heska Corp'
p450
sS'AFL'
p451
S'Aflac Inc'
p452
sS'DLB'
p453
S'Dolby Laboratories Inc'
p454
sS'PAYX'
p455
S'Paychex Inc'
p456
sS'CSOD'
p457
S'Cornerstone OnDemand Inc'
p458
sS'AFI'
p459
S'Armstrong Flooring Inc'
p460
sS'GCI'
p461
S'Gannett Co Inc'
p462
sS'AFG'
p463
S'American Financial Group Inc'
p464
sS'GCO'
p465
S'Genesco Inc'
p466
sS'SLCA'
p467
S'U.S. Silica Holdings Inc'
p468
sS'W'
p469
S'Wayfair Inc'
p470
sS'PAYC'
p471
S'Paycom Software Inc'
p472
sS'DLX'
p473
S'Deluxe Corp'
p474
sS'BTU'
p475
S'Peabody Energy Corp'
p476
sS'SSP'
p477
S'E. W. Scripps Co'
p478
sS'MEDP'
p479
S'Medpace Holdings Inc'
p480
sS'SSD'
p481
S'Simpson Manufacturing Co Inc'
p482
sS'GTHX'
p483
S'G1 Therapeutics Inc'
p484
sS'SSB'
p485
S'South State Corp'
p486
sS'TACO'
p487
S'Del Taco Restaurants Inc'
p488
sS'HLNE'
p489
S'Hamilton Lane Inc'
p490
sS'WYN'
p491
S'Wyndham Worldwide Corp'
p492
sS'PGTI'
p493
S'PGT Innovations Inc'
p494
sS'RMR'
p495
S'RMR Group Inc'
p496
sS'LANC'
p497
S'Lancaster Colony Corp'
p498
sS'LORL'
p499
S'Loral Space & Communications Inc'
p500
sS'EXPR'
p501
S'Express Inc'
p502
sS'ECL'
p503
S'Ecolab Inc'
p504
sS'IPHS'
p505
S'Innophos Holdings Inc'
p506
sS'FMSA'
p507
S'Fairmount Santrol Holdings Inc'
p508
sS'LNN'
p509
S'Lindsay Corp'
p510
sS'EXPO'
p511
S'Exponent Inc'
p512
sS'LGND'
p513
S'Ligand Pharmaceuticals Inc'
p514
sS'RMD'
p515
S'Resmed Inc'
p516
sS'LNG'
p517
S'Cheniere Energy Inc'
p518
sS'HWKN'
p519
S'Hawkins Inc'
p520
sS'LNC'
p521
S'Lincoln National Corp'
p522
sS'EXPD'
p523
S'Expeditors International of Washington Inc'
p524
sS'IONS'
p525
S'Ionis Pharmaceuticals Inc'
p526
sS'ETFC'
p527
S'E*TRADE Financial Corp'
p528
sS'B'
p529
S'Barnes Group Inc'
p530
sS'BHGE'
p531
S'Baker Hughes A GE Co'
p532
sS'BBY'
p533
S'Best Buy Co Inc'
p534
sS'CTWS'
p535
S'Connecticut Water Service Inc'
p536
sS'WAIR'
p537
S'Wesco Aircraft Holdings Inc'
p538
sS'BBT'
p539
S'BB&T Corp'
p540
sS'TRIP'
p541
S'TripAdvisor Inc'
p542
sS'NUE'
p543
S'Nucor Corp'
p544
sS'VMI'
p545
S'Valmont Industries Inc'
p546
sS'TUP'
p547
S'Tupperware Brands Corp'
p548
sS'PLD'
p549
S'Prologis Inc'
p550
sS'DNKN'
p551
S"Dunkin' Brands Group Inc"
p552
sS'ADXS'
p553
S'Advaxis Inc'
p554
sS'VMW'
p555
S'VMware Inc'
p556
sS'CLGX'
p557
S'Corelogic Inc'
p558
sS'STMP'
p559
S'Stamps.Com Inc'
p560
sS'ANSS'
p561
S'ANSYS Inc'
p562
sS'NBIX'
p563
S'Neurocrine Biosciences Inc'
p564
sS'KRNY'
p565
S'Kearny Financial Corp'
p566
sS'ICUI'
p567
S'ICU Medical Inc'
p568
sS'BLCM'
p569
S'Bellicum Pharmaceuticals Inc'
p570
sS'CLI'
p571
S'Mack-Cali Realty Corp'
p572
sS'CYS'
p573
S'CYS Investments Inc'
p574
sS'HMHC'
p575
S'Houghton Mifflin Harcourt Co'
p576
sS'NPTN'
p577
S'NeoPhotonics Corp'
p578
sS'BIIB'
p579
S'Biogen Inc'
p580
sS'CAMP'
p581
S'CalAmp Corp'
p582
sS'POR'
p583
S'Portland General Electric Co'
p584
sS'TSS'
p585
S'Total System Services Inc'
p586
sS'PHIIK'
p587
S'PHI Inc'
p588
sS'CBL'
p589
S'CBL & Associates Properties Inc'
p590
sS'POL'
p591
S'PolyOne Corp'
p592
sS'CYH'
p593
S'Community Health Systems Inc'
p594
sS'OSTK'
p595
S'Overstock.com Inc'
p596
sS'OMCL'
p597
S'Omnicell Inc'
p598
sS'SPWH'
p599
S'Sportsmans Warehouse Holdings Inc'
p600
sS'CWT'
p601
S'California Water Service Group'
p602
sS'CWH'
p603
S'Camping World Holdings Inc'
p604
sS'SPWR'
p605
S'SunPower Corp'
p606
sS'PYPL'
p607
S'PayPal Holdings Inc'
p608
sS'FWRD'
p609
S'Forward Air Corp'
p610
sS'YUM'
p611
S'Yum! Brands Inc'
p612
sS'GLYC'
p613
S'GlycoMimetics Inc'
p614
sS'HMST'
p615
S'HomeStreet Inc'
p616
sS'ENTA'
p617
S'Enanta Pharmaceuticals Inc'
p618
sS'ENTG'
p619
S'Entegris Inc'
p620
sS'SRCE'
p621
S'1st Source Corp'
p622
sS'PAY'
p623
S'Verifone Systems Inc'
p624
sS'AAPL'
p625
S'Apple Inc'
p626
sS'SRCI'
p627
S'SRC Energy Inc'
p628
sS'CKH'
p629
S'SEACOR Holdings Inc'
p630
sS'SRCL'
p631
S'Stericycle Inc'
p632
sS'CHEF'
p633
S"Chefs' Warehouse Inc"
p634
sS'PAG'
p635
S'Penske Automotive Group Inc'
p636
sS'PAH'
p637
S'Platform Specialty Products Corp'
p638
sS'THRM'
p639
S'Gentherm Inc'
p640
sS'DCI'
p641
S'Donaldson Company Inc'
p642
sS'AMSF'
p643
S'Amerisafe Inc'
p644
sS'BPMC'
p645
S'Blueprint Medicines Corp'
p646
sS'LKFN'
p647
S'Lakeland Financial Corp'
p648
sS'CDNS'
p649
S'Cadence Design Systems Inc'
p650
sS'AWR'
p651
S'American States Water Co'
p652
sS'AWK'
p653
S'American Water Works Company Inc'
p654
sS'AWI'
p655
S'Armstrong World Industries Inc'
p656
sS'DCT'
p657
S'DCT Industrial Trust Inc'
p658
sS'WEC'
p659
S'WEC Energy Group Inc'
p660
sS'WEB'
p661
S'Web.com Group Inc'
p662
sS'MTCH'
p663
S'Match Group Inc'
p664
sS'CNOB'
p665
S'ConnectOne Bancorp Inc'
p666
sS'PSDO'
p667
S'Presidio Inc'
p668
sS'WEN'
p669
S'Wendys Co'
p670
sS'TGNA'
p671
S'Tegna Inc'
p672
sS'SHAK'
p673
S'Shake Shack Inc'
p674
sS'JNCE'
p675
S'Jounce Therapeutics Inc'
p676
sS'X'
p677
S'United States Steel Corp'
p678
sS'WEX'
p679
S'WEX Inc'
p680
sS'CULP'
p681
S'Culp Inc'
p682
sS'UBSH'
p683
S'Union Bankshares Corp'
p684
sS'UBSI'
p685
S'United Bankshares Inc'
p686
sS'ANAT'
p687
S'American National Insurance Co'
p688
sS'PLCE'
p689
S'Childrens Place Inc'
p690
sS'OII'
p691
S'Oceaneering International Inc'
p692
sS'LSXMA'
p693
S'Liberty Media Corp'
p694
sS'SEND'
p695
S'SendGrid Inc'
p696
sS'ANAB'
p697
S'AnaptysBio Inc'
p698
sS'NVRO'
p699
S'Nevro Corp'
p700
sS'OIS'
p701
S'Oil States International Inc'
p702
sS'IRTC'
p703
S'iRhythm Technologies Inc'
p704
sS'UMBF'
p705
S'UMB Financial Corp'
p706
sS'AEP'
p707
S'American Electric Power Company Inc'
p708
sS'AMAG'
p709
S'AMAG Pharmaceuticals Inc'
p710
sS'AET'
p711
S'Aetna Inc'
p712
sS'GBL'
p713
S'GAMCO Investors Inc'
p714
sS'SLG'
p715
S'SL Green Realty Corp'
p716
sS'OMN'
p717
S'OMNOVA Solutions Inc'
p718
sS'AMAT'
p719
S'Applied Materials Inc'
p720
sS'GBT'
p721
S'Global Blood Therapeutics Inc'
p722
sS'AEE'
p723
S'Ameren Corp'
p724
sS'CSLT'
p725
S'Castlight Health Inc'
p726
sS'SSNC'
p727
S'SS&C Technologies Holdings Inc'
p728
sS'AEL'
p729
S'American Equity Investment Life Holding Co'
p730
sS'GBX'
p731
S'Greenbrier Companies Inc'
p732
sS'SABR'
p733
S'Sabre Corp'
p734
sS'GSAT'
p735
S'Globalstar Inc'
p736
sS'PRLB'
p737
S'Proto Labs Inc'
p738
sS'MEET'
p739
S'Meet Group Inc'
p740
sS'CTXS'
p741
S'Citrix Systems Inc'
p742
sS'FFBC'
p743
S'First Financial Bancorp'
p744
sS'BHVN'
p745
S'Biohaven Pharmaceutical Holding Company Ltd'
p746
sS'AGNC'
p747
S'AGNC Investment Corp'
p748
sS'C'
p749
S'Citigroup Inc'
p750
sS'UMPQ'
p751
S'Umpqua Holdings Corp'
p752
sS'MSCI'
p753
S'MSCI Inc'
p754
sS'XRX'
p755
S'Xerox Corp'
p756
sS'MSCC'
p757
S'Microsemi Corp'
p758
sS'RDUS'
p759
S'Radius Health Inc'
p760
sS'BLL'
p761
S'Ball Corp'
p762
sS'PSB'
p763
S'PS Business Parks Inc'
p764
sS'IMKTA'
p765
S'Ingles Markets Inc'
p766
sS'PSA'
p767
S'Public Storage'
p768
sS'MOV'
p769
S'Movado Group Inc'
p770
sS'KURA'
p771
S'Kura Oncology Inc'
p772
sS'KFRC'
p773
S'Kforce Inc'
p774
sS'MOH'
p775
S'Molina Healthcare Inc'
p776
sS'CRD.B'
p777
S'Crawford & Co'
p778
sS'MON'
p779
S'Monsanto Co'
p780
sS'INWK'
p781
S'InnerWorkings Inc'
p782
sS'JLL'
p783
S'Jones Lang LaSalle Inc'
p784
sS'GABC'
p785
S'German American Bancorp Inc'
p786
sS'MOD'
p787
S'Modine Manufacturing Co'
p788
sS'ETR'
p789
S'Entergy Corp'
p790
sS'HRTX'
p791
S'Heron Therapeutics Inc'
p792
sS'BCO'
p793
S'Brinks Co'
p794
sS'KMB'
p795
S'Kimberly-Clark Corp'
p796
sS'TRNO'
p797
S'Terreno Realty Corp'
p798
sS'HNI'
p799
S'HNI Corp'
p800
sS'TRNC'
p801
S'tronc Inc'
p802
sS'SWK'
p803
S'Stanley Black & Decker Inc'
p804
sS'KMI'
p805
S'Kinder Morgan Inc'
p806
sS'BCC'
p807
S'Boise Cascade Co'
p808
sS'BABY'
p809
S'Natus Medical Inc'
p810
sS'KMT'
p811
S'Kennametal Inc'
p812
sS'INAP'
p813
S'Internap Corp'
p814
sS'FDEF'
p815
S'First Defiance Financial Corp'
p816
sS'ETH'
p817
S'Ethan Allen Interiors Inc'
p818
sS'ILPT'
p819
S'Industrial Logistics Properties Trust'
p820
sS'ETN'
p821
S'Eaton Corporation PLC'
p822
sS'CRVL'
p823
S'CorVel Corp'
p824
sS'ETM'
p825
S'Entercom Communications Corp'
p826
sS'DLTR'
p827
S'Dollar Tree Inc'
p828
sS'PPBI'
p829
S'Pacific Premier Bancorp Inc'
p830
sS'DLTH'
p831
S'Duluth Holdings Inc'
p832
sS'BPI'
p833
S'Bridgepoint Education Inc'
p834
sS'VRA'
p835
S'Vera Bradley Inc'
p836
sS'RUSHB'
p837
S'Rush Enterprises Inc'
p838
sS'RUSHA'
p839
S'Rush Enterprises Inc'
p840
sS'AAL'
p841
S'American Airlines Group Inc'
p842
sS'WERN'
p843
S'Werner Enterprises Inc'
p844
sS'SRC'
p845
S'Spirit Realty Capital Inc'
p846
sS'CI'
p847
S'Cigna Corp'
p848
sS'SRG'
p849
S'Seritage Growth Properties'
p850
sS'CL'
p851
S'Colgate-Palmolive Co'
p852
sS'CC'
p853
S'Chemours Co'
p854
sS'CB'
p855
S'Chubb Ltd'
p856
sS'CA'
p857
S'CA Inc'
p858
sS'SRI'
p859
S'Stoneridge Inc'
p860
sS'CF'
p861
S'CF Industries Holdings Inc'
p862
sS'CE'
p863
S'Celanese Corp'
p864
sS'CY'
p865
S'Cypress Semiconductor Corp'
p866
sS'CR'
p867
S'Crane Co'
p868
sS'USNA'
p869
S'USANA Health Sciences Inc'
p870
sS'CW'
p871
S'Curtiss-Wright Corp'
p872
sS'ATUS'
p873
S'Altice USA Inc'
p874
sS'TDC'
p875
S'Teradata Corp'
p876
sS'HUBB'
p877
S'Hubbell Inc'
p878
sS'LPSN'
p879
S'LivePerson Inc'
p880
sS'HUBG'
p881
S'Hub Group Inc'
p882
sS'TDY'
p883
S'Teledyne Technologies Inc'
p884
sS'HUBS'
p885
S'HubSpot Inc'
p886
sS'LOB'
p887
S'Live Oak Bancshares Inc'
p888
sS'SYRS'
p889
S'Syros Pharmaceuticals Inc'
p890
sS'FHN'
p891
S'First Horizon National Corp'
p892
sS'YEXT'
p893
S'Yext Inc'
p894
sS'CVS'
p895
S'CVS Health Corp'
p896
sS'FHB'
p897
S'First Hawaiian Inc'
p898
sS'ZNGA'
p899
S'Zynga Inc'
p900
sS'LOW'
p901
S"Lowe's Companies Inc"
p902
sS'CVI'
p903
S'CVR Energy Inc'
p904
sS'PLXS'
p905
S'Plexus Corp'
p906
sS'CVG'
p907
S'Convergys Corp'
p908
sS'OSUR'
p909
S'OraSure Technologies Inc'
p910
sS'CVA'
p911
S'Covanta Holding Corp'
p912
sS'INN'
p913
S'Summit Hotel Properties Inc'
p914
sS'TUES'
p915
S'Tuesday Morning Corp'
p916
sS'SBGI'
p917
S'Sinclair Broadcast Group Inc'
p918
sS'VC'
p919
S'Visteon Corp'
p920
sS'ATGE'
p921
S'Adtalem Global Education Inc'
p922
sS'HPR'
p923
S'Bill Barrett Corp'
p924
sS'HPQ'
p925
S'HP Inc'
p926
sS'HPP'
p927
S'Hudson Pacific Properties Inc'
p928
sS'HPT'
p929
S'Hospitality Properties Trust'
p930
sS'VR'
p931
S'Validus Holdings Ltd'
p932
sS'BCEI'
p933
S'Bonanza Creek Energy Inc'
p934
sS'TJX'
p935
S'TJX Companies Inc'
p936
sS'Y'
p937
S'Alleghany Corp'
p938
sS'VZ'
p939
S'Verizon Communications Inc'
p940
sS'WMT'
p941
S'Walmart Inc'
p942
sS'HPE'
p943
S'Hewlett Packard Enterprise Co'
p944
sS'NTGR'
p945
S'NETGEAR Inc'
p946
sS'EBF'
p947
S'Ennis Inc'
p948
sS'CNDT'
p949
S'Conduent Inc'
p950
sS'NANO'
p951
S'Nanometrics Inc'
p952
sS'LAMR'
p953
S'Lamar Advertising Co'
p954
sS'RJF'
p955
S'Raymond James Financial Inc'
p956
sS'EBS'
p957
S'Emergent BioSolutions Inc'
p958
sS'ARDX'
p959
S'Ardelyx Inc'
p960
sS'CTT'
p961
S'CatchMark Timber Trust Inc'
p962
sS'WDC'
p963
S'Western Digital Corp'
p964
sS'DRQ'
p965
S'Dril-Quip Inc'
p966
sS'GRBK'
p967
S'Green Brick Partners Inc'
p968
sS'LFUS'
p969
S'Littelfuse Inc'
p970
sS'DRI'
p971
S'Darden Restaurants Inc'
p972
sS'DRH'
p973
S'DiamondRock Hospitality Co'
p974
sS'WDR'
p975
S'Waddell & Reed Financial Inc'
p976
sS'CONE'
p977
S'CyrusOne Inc'
p978
sS'GPRE'
p979
S'Green Plains Inc'
p980
sS'GPRO'
p981
S'GoPro Inc'
p982
sS'CONN'
p983
S"Conn's Inc"
p984
sS'TCBI'
p985
S'Texas Capital Bancshares Inc'
p986
sS'ALLE'
p987
S'Allegion PLC'
p988
sS'OHI'
p989
S'Omega Healthcare Investors Inc'
p990
sS'GBNK'
p991
S'Guaranty Bancorp'
p992
sS'UIS'
p993
S'Unisys Corp'
p994
sS'DGICA'
p995
S'Donegal Group Inc'
p996
sS'ALLY'
p997
S'Ally Financial Inc'
p998
sS'CXP'
p999
S'Columbia Property Trust Inc'
p1000
sS'NVAX'
p1001
S'Novavax Inc'
p1002
sS'D'
p1003
S'Dominion Energy Inc'
p1004
sS'RXN'
p1005
S'Rexnord Corp'
p1006
sS'ECR'
p1007
S'Eclipse Resources Corp'
p1008
sS'UBP'
p1009
S'Urstadt Biddle Properties Inc'
p1010
sS'PBYI'
p1011
S'Puma Biotechnology Inc'
p1012
sS'STLD'
p1013
S'Steel Dynamics Inc'
p1014
sS'SRPT'
p1015
S'Sarepta Therapeutics Inc'
p1016
sS'CXW'
p1017
S'CoreCivic Inc'
p1018
sS'LECO'
p1019
S'Lincoln Electric Holdings Inc'
p1020
sS'CXO'
p1021
S'Concho Resources Inc'
p1022
sS'JRVR'
p1023
S'James River Group Holdings Ltd'
p1024
sS'VREX'
p1025
S'Varex Imaging Corp'
p1026
sS'HCSG'
p1027
S'Healthcare Services Group Inc'
p1028
sS'HR'
p1029
S'Healthcare Realty Trust Inc'
p1030
sS'HP'
p1031
S'Helmerich and Payne Inc'
p1032
sS'HT'
p1033
S'Hersha Hospitality Trust'
p1034
sS'AAON'
p1035
S'Aaon Inc'
p1036
sS'HI'
p1037
S'Hillenbrand Inc'
p1038
sS'HL'
p1039
S'Hecla Mining Co'
p1040
sS'HA'
p1041
S'Hawaiian Holdings Inc'
p1042
sS'HF'
p1043
S'HFF Inc'
p1044
sS'HD'
p1045
S'Home Depot Inc'
p1046
sS'HE'
p1047
S'Hawaiian Electric Industries Inc'
p1048
sS'SCL'
p1049
S'Stepan Co'
p1050
sS'SCI'
p1051
S'Service Corporation International'
p1052
sS'DHI'
p1053
S'D.R. Horton Inc'
p1054
sS'SCG'
p1055
S'SCANA Corp'
p1056
sS'PTC'
p1057
S'PTC Inc'
p1058
sS'KLIC'
p1059
S'Kulicke and Soffa Industries Inc'
p1060
sS'REG'
p1061
S'Regency Centers Corp'
p1062
sS'MNK'
p1063
S'Mallinckrodt Plc'
p1064
sS'INVH'
p1065
S'Invitation Homes Inc'
p1066
sS'ACOR'
p1067
S'Acorda Therapeutics Inc'
p1068
sS'INVA'
p1069
S'Innoviva Inc'
p1070
sS'NTRI'
p1071
S'Nutrisystem Inc'
p1072
sS'JAZZ'
p1073
S'Jazz Pharmaceuticals PLC'
p1074
sS'IBCP'
p1075
S'Independent Bank Corp'
p1076
sS'PBF'
p1077
S'PBF Energy Inc'
p1078
sS'PBI'
p1079
S'Pitney Bowes Inc'
p1080
sS'PBH'
p1081
S'Prestige Brands Holdings Inc'
p1082
sS'CHDN'
p1083
S'Churchill Downs Inc'
p1084
sS'MATW'
p1085
S'Matthews International Corp'
p1086
sS'AMPH'
p1087
S'Amphastar Pharmaceuticals Inc'
p1088
sS'AVX'
p1089
S'AVX Corp'
p1090
sS'MPC'
p1091
S'Marathon Petroleum Corp'
p1092
sS'CVX'
p1093
S'Chevron Corp'
p1094
sS'AVT'
p1095
S'Avnet Inc'
p1096
sS'MPO'
p1097
S'Midstates Petroleum Company Inc'
p1098
sS'AVP'
p1099
S'Avon Products Inc'
p1100
sS'MATX'
p1101
S'Matson Inc'
p1102
sS'MPW'
p1103
S'Medical Properties Trust Inc'
p1104
sS'AVD'
p1105
S'American Vanguard Corp'
p1106
sS'AVA'
p1107
S'Avista Corp'
p1108
sS'AVB'
p1109
S'AvalonBay Communities Inc'
p1110
sS'ACAD'
p1111
S'ACADIA Pharmaceuticals Inc'
p1112
sS'SUM'
p1113
S'Summit Materials Inc'
p1114
sS'SUI'
p1115
S'Sun Communities Inc'
p1116
sS'HY'
p1117
S'Hyster-Yale Materials Handling Inc'
p1118
sS'SUP'
p1119
S'Superior Industries International Inc'
p1120
sS'JBLU'
p1121
S'JetBlue Airways Corp'
p1122
sS'GOV'
p1123
S'Government Properties Income Trust'
p1124
sS'TEL'
p1125
S'TE Connectivity Ltd'
p1126
sS'LPNT'
p1127
S'LifePoint Health Inc'
p1128
sS'NBR'
p1129
S'Nabors Industries Ltd'
p1130
sS'RGLD'
p1131
S'Royal Gold Inc'
p1132
sS'TEX'
p1133
S'Terex Corp'
p1134
sS'POOL'
p1135
S'Pool Corp'
p1136
sS'NBL'
p1137
S'Noble Energy Inc'
p1138
sS'NMIH'
p1139
S'NMI Holdings Inc'
p1140
sS'TER'
p1141
S'Teradyne Inc'
p1142
sS'CORE'
p1143
S'Core-Mark Holding Company Inc'
p1144
sS'ADT'
p1145
S'ADT Inc'
p1146
sS'ADS'
p1147
S'Alliance Data Systems Corp'
p1148
sS'ADP'
p1149
S'Automatic Data Processing Inc'
p1150
sS'DNB'
p1151
S'Dun & Bradstreet Corp'
p1152
sS'RGNX'
p1153
S'Regenxbio Inc'
p1154
sS'CORI'
p1155
S'Corium International Inc'
p1156
sS'GME'
p1157
S'GameStop Corp'
p1158
sS'CORT'
p1159
S'Corcept Therapeutics Inc'
p1160
sS'ADC'
p1161
S'Agree Realty Corp'
p1162
sS'DNR'
p1163
S'Denbury Resources Inc'
p1164
sS'GMS'
p1165
S'GMS Inc'
p1166
sS'UHAL'
p1167
S'Amerco'
p1168
sS'Z'
p1169
S'Zillow Group Inc'
p1170
sS'SLAB'
p1171
S'Silicon Laboratories Inc'
p1172
sS'ADI'
p1173
S'Analog Devices Inc'
p1174
sS'CHCT'
p1175
S'Community Healthcare Trust Inc'
p1176
sS'VIAB'
p1177
S'Viacom Inc'
p1178
sS'BRX'
p1179
S'Brixmor Property Group Inc'
p1180
sS'XEL'
p1181
S'Xcel Energy Inc'
p1182
sS'BRS'
p1183
S'Bristow Group Inc'
p1184
sS'BRO'
p1185
S'Brown & Brown Inc'
p1186
sS'TBPH'
p1187
S'Theravance Biopharma Inc'
p1188
sS'BRC'
p1189
S'Brady Corp'
p1190
sS'HQY'
p1191
S'HealthEquity Inc'
p1192
sS'QCP'
p1193
S'Quality Care Properties Inc'
p1194
sS'AAOI'
p1195
S'Applied Optoelectronics Inc'
p1196
sS'TWI'
p1197
S'Titan International Inc'
p1198
sS'TWO'
p1199
S'Two Harbors Investment Corp'
p1200
sS'DISH'
p1201
S'DISH Network Corp'
p1202
sS'TWX'
p1203
S'Time Warner Inc'
p1204
sS'GNMK'
p1205
S'GenMark Diagnostics Inc'
p1206
sS'VEEV'
p1207
S'Veeva Systems Inc'
p1208
sS'WIRE'
p1209
S'Encore Wire Corp'
p1210
sS'ALSN'
p1211
S'Allison Transmission Holdings Inc'
p1212
sS'LNTH'
p1213
S'Lantheus Holdings Inc'
p1214
sS'EAT'
p1215
S'Brinker International Inc'
p1216
sS'ESV'
p1217
S'Ensco PLC'
p1218
sS'ESS'
p1219
S'Essex Property Trust Inc'
p1220
sS'MCY'
p1221
S'Mercury General Corp'
p1222
sS'HON'
p1223
S'Honeywell International Inc'
p1224
sS'MLHR'
p1225
S'Herman Miller Inc'
p1226
sS'GOGO'
p1227
S'Gogo Inc'
p1228
sS'ESE'
p1229
S'ESCO Technologies Inc'
p1230
sS'TROX'
p1231
S'Tronox Ltd'
p1232
sS'HOS'
p1233
S'Hornbeck Offshore Services Inc'
p1234
sS'EVTC'
p1235
S'Evertec Inc'
p1236
sS'AJRD'
p1237
S'Aerojet Rocketdyne Holdings Inc'
p1238
sS'TROW'
p1239
S'T. Rowe Price Group Inc'
p1240
sS'SHOO'
p1241
S'Steven Madden Ltd'
p1242
sS'SMCI'
p1243
S'Super Micro Computer Inc'
p1244
sS'IPXL'
p1245
S'Impax Laboratories Inc'
p1246
sS'VST'
p1247
S'Vistra Energy Corp'
p1248
sS'PFBC'
p1249
S'Preferred Bank'
p1250
sS'MCS'
p1251
S'Marcus Corp'
p1252
sS'DFRG'
p1253
S"Del Frisco's Restaurant Group Inc"
p1254
sS'KELYA'
p1255
S'Kelly Services Inc'
p1256
sS'NCSM'
p1257
S'NCS Multistage Holdings Inc'
p1258
sS'CECE'
p1259
S'CECO Environmental Corp'
p1260
sS'VSH'
p1261
S'Vishay Intertechnology Inc'
p1262
sS'SPGI'
p1263
S'S&P Global Inc'
p1264
sS'VSM'
p1265
S'Versum Materials Inc'
p1266
sS'CECO'
p1267
S'Career Education Corp'
p1268
sS'RYN'
p1269
S'Rayonier Inc'
p1270
sS'NDSN'
p1271
S'Nordson Corp'
p1272
sS'SLB'
p1273
S'Schlumberger NV'
p1274
sS'RYI'
p1275
S'Ryerson Holding Corp'
p1276
sS'EXLS'
p1277
S'Exlservice Holdings Inc'
p1278
sS'PDVW'
p1279
S'pdvWireless Inc'
p1280
sS'EVHC'
p1281
S'Envision Healthcare Corp'
p1282
sS'IDXX'
p1283
S'IDEXX Laboratories Inc'
p1284
sS'QRVO'
p1285
S'Qorvo Inc'
p1286
sS'EXC'
p1287
S'Exelon Corp'
p1288
sS'ROIC'
p1289
S'Retail Opportunity Investments Corp'
p1290
sS'FMC'
p1291
S'FMC Corp'
p1292
sS'ZUMZ'
p1293
S'Zumiez Inc'
p1294
sS'CCOI'
p1295
S'Cogent Communications Holdings Inc'
p1296
sS'FIS'
p1297
S'Fidelity National Information Services Inc'
p1298
sS'FIT'
p1299
S'Fitbit Inc'
p1300
sS'LHO'
p1301
S'LaSalle Hotel Properties'
p1302
sS'VAC'
p1303
S'Marriott Vacations Worldwide Corp'
p1304
sS'FIX'
p1305
S'Comfort Systems USA Inc'
p1306
sS'VAR'
p1307
S'Varian Medical Systems Inc'
p1308
sS'FULT'
p1309
S'Fulton Financial Corp'
p1310
sS'PCTY'
p1311
S'Paylocity Holding Corp'
p1312
sS'RLJ'
p1313
S'RLJ Lodging Trust'
p1314
sS'DNLI'
p1315
S'Denali Therapeutics Inc'
p1316
sS'PSTG'
p1317
S'Pure Storage Inc'
p1318
sS'SCS'
p1319
S'Steelcase Inc'
p1320
sS'LRCX'
p1321
S'Lam Research Corp'
p1322
sS'CMO'
p1323
S'Capstead Mortgage Corp'
p1324
sS'EGBN'
p1325
S'Eagle Bancorp Inc'
p1326
sS'CMI'
p1327
S'Cummins Inc'
p1328
sS'CMG'
p1329
S'Chipotle Mexican Grill Inc'
p1330
sS'CME'
p1331
S'CME Group Inc'
p1332
sS'CMD'
p1333
S'Cantel Medical Corp'
p1334
sS'CMC'
p1335
S'Commercial Metals Co'
p1336
sS'CMA'
p1337
S'Comerica Inc'
p1338
sS'PCH'
p1339
S'PotlatchDeltic Corp'
p1340
sS'HMTV'
p1341
S'Hemisphere Media Group Inc'
p1342
sS'CMS'
p1343
S'CMS Energy Corp'
p1344
sS'PCG'
p1345
S'PG&E Corp'
p1346
sS'CMP'
p1347
S'Compass Minerals International Inc'
p1348
sS'INGN'
p1349
S'Inogen Inc'
p1350
sS'SNBR'
p1351
S'Sleep Number Corp'
p1352
sS'SGRY'
p1353
S'Surgery Partners Inc'
p1354
sS'UVV'
p1355
S'Universal Corp'
p1356
sS'FLWS'
p1357
S'1-800-Flowers.Com Inc'
p1358
sS'FNGN'
p1359
S'Financial Engines Inc'
p1360
sS'LITE'
p1361
S'Lumentum Holdings Inc'
p1362
sS'CENTA'
p1363
S'Central Garden & Pet Co'
p1364
sS'FSLR'
p1365
S'First Solar Inc'
p1366
sS'NWLI'
p1367
S'National Western Life Group Inc'
p1368
sS'UVE'
p1369
S'Universal Insurance Holdings Inc'
p1370
sS'INGR'
p1371
S'Ingredion Inc'
p1372
sS'DIOD'
p1373
S'Diodes Inc'
p1374
sS'GRMN'
p1375
S'Garmin Ltd'
p1376
sS'DOOR'
p1377
S'Masonite International Corp'
p1378
sS'SNPS'
p1379
S'Synopsys Inc'
p1380
sS'WGL'
p1381
S'WGL Holdings Inc'
p1382
sS'DST'
p1383
S'DST Systems Inc'
p1384
sS'PEBO'
p1385
S'Peoples Bancorp Inc'
p1386
sS'CHUY'
p1387
S"Chuy's Holdings Inc"
p1388
sS'MD'
p1389
S'MEDNAX Inc'
p1390
sS'MG'
p1391
S'Mistras Group Inc'
p1392
sS'MA'
p1393
S'Mastercard Inc'
p1394
sS'ALOG'
p1395
S'Analogic Corp'
p1396
sS'MC'
p1397
S'Moelis & Co'
p1398
sS'MB'
p1399
S'Mindbody Inc'
p1400
sS'INT'
p1401
S'World Fuel Services Corp'
p1402
sS'MO'
p1403
S'Altria Group Inc'
p1404
sS'MU'
p1405
S'Micron Technology Inc'
p1406
sS'UHT'
p1407
S'Universal Health Realty Income Trust'
p1408
sS'INO'
p1409
S'Inovio Pharmaceuticals Inc'
p1410
sS'NDAQ'
p1411
S'Nasdaq Inc'
p1412
sS'UHS'
p1413
S'Universal Health Services Inc'
p1414
sS'MS'
p1415
S'Morgan Stanley'
p1416
sS'SPLK'
p1417
S'Splunk Inc'
p1418
sS'AKS'
p1419
S'AK Steel Holding Corp'
p1420
sS'DOC'
p1421
S'Physicians Realty Trust'
p1422
sS'ORIT'
p1423
S'Oritani Financial Corp'
p1424
sS'AMGN'
p1425
S'Amgen Inc'
p1426
sS'COST'
p1427
S'Costco Wholesale Corp'
p1428
sS'HURN'
p1429
S'Huron Consulting Group Inc'
p1430
sS'GPMT'
p1431
S'Granite Point Mortgage Trust Inc'
p1432
sS'DOV'
p1433
S'Dover Corp'
p1434
sS'EPAM'
p1435
S'EPAM Systems Inc'
p1436
sS'GLW'
p1437
S'Corning Inc'
p1438
sS'SCHW'
p1439
S'Charles Schwab Corp'
p1440
sS'BSX'
p1441
S'Boston Scientific Corp'
p1442
sS'POWI'
p1443
S'Power Integrations Inc'
p1444
sS'POWL'
p1445
S'Powell Industries Inc'
p1446
sS'SCHN'
p1447
S'Schnitzer Steel Industries Inc'
p1448
sS'SCHL'
p1449
S'Scholastic Corp'
p1450
sS'LOXO'
p1451
S'Loxo Oncology Inc'
p1452
sS'ELLI'
p1453
S'Ellie Mae Inc'
p1454
sS'F'
p1455
S'Ford Motor Co'
p1456
sS'HABT'
p1457
S'Habit Restaurants Inc'
p1458
sS'CBPX'
p1459
S'Continental Building Products Inc'
p1460
sS'EVC'
p1461
S'Entravision Communications Corp'
p1462
sS'PAHC'
p1463
S'Phibro Animal Health Corp'
p1464
sS'SNCR'
p1465
S'Synchronoss Technologies Inc'
p1466
sS'AVY'
p1467
S'Avery Dennison Corp'
p1468
sS'MMS'
p1469
S'Maximus Inc'
p1470
sS'MMM'
p1471
S'3M Co'
p1472
sS'MMI'
p1473
S'Marcus & Millichap Inc'
p1474
sS'SBH'
p1475
S'Sally Beauty Holdings Inc'
p1476
sS'MMC'
p1477
S'Marsh & McLennan Companies Inc'
p1478
sS'VRNS'
p1479
S'Varonis Systems Inc'
p1480
sS'CIEN'
p1481
S'Ciena Corp'
p1482
sS'LTRPA'
p1483
S'Liberty Tripadvisor Holdings Inc'
p1484
sS'ITCI'
p1485
S'Intra-Cellular Therapies Inc'
p1486
sS'CAL'
p1487
S'Caleres Inc'
p1488
sS'BAX'
p1489
S'Baxter International Inc'
p1490
sS'FMBI'
p1491
S'First Midwest Bancorp Inc'
p1492
sS'EEFT'
p1493
S'Euronet Worldwide Inc'
p1494
sS'SONC'
p1495
S'Sonic Corp'
p1496
sS'GM'
p1497
S'General Motors Co'
p1498
sS'BAC'
p1499
S'Bank of America Corp'
p1500
sS'KOP'
p1501
S'Koppers Holdings Inc'
p1502
sS'KOS'
p1503
S'Kosmos Energy Ltd'
p1504
sS'ERI'
p1505
S'Eldorado Resorts Inc'
p1506
sS'BAH'
p1507
S'Booz Allen Hamilton Holding Corp'
p1508
sS'DATA'
p1509
S'Tableau Software Inc'
p1510
sS'BJRI'
p1511
S"BJ's Restaurants Inc"
p1512
sS'MDCO'
p1513
S'Medicines Co'
p1514
sS'CELG'
p1515
S'Celgene Corp'
p1516
sS'FBNC'
p1517
S'First Bancorp'
p1518
sS'WLTW'
p1519
S'Willis Towers Watson PLC'
p1520
sS'STE'
p1521
S'STERIS plc'
p1522
sS'EQR'
p1523
S'Equity Residential'
p1524
sS'NEOG'
p1525
S'Neogen Corp'
p1526
sS'STC'
p1527
S'Stewart Information Services Corp'
p1528
sS'STL'
p1529
S'Sterling Bancorp'
p1530
sS'ACBI'
p1531
S'Atlantic Capital Bancshares Inc'
p1532
sS'STI'
p1533
S'SunTrust Banks Inc'
p1534
sS'EQT'
p1535
S'EQT Corp'
p1536
sS'STT'
p1537
S'State Street Corp'
p1538
sS'RESI'
p1539
S'Front Yard Residential Corp'
p1540
sS'WSFS'
p1541
S'WSFS Financial Corp'
p1542
sS'STX'
p1543
S'Seagate Technology PLC'
p1544
sS'STZ'
p1545
S'Constellation Brands Inc'
p1546
sS'CERN'
p1547
S'Cerner Corp'
p1548
sS'NCLH'
p1549
S'Norwegian Cruise Line Holdings Ltd'
p1550
sS'NCR'
p1551
S'NCR Corp'
p1552
sS'NCS'
p1553
S'NCI Building Systems Inc'
p1554
sS'NCI'
p1555
S'Navigant Consulting Inc'
p1556
sS'CERS'
p1557
S'Cerus Corp'
p1558
sS'LBTYA'
p1559
S'Liberty Global PLC'
p1560
sS'CHUBA'
p1561
S'CommerceHub Inc'
p1562
sS'SPTN'
p1563
S'SpartanNash Co'
p1564
sS'ONDK'
p1565
S'On Deck Capital Inc'
p1566
sS'ECOL'
p1567
S'US Ecology Inc'
p1568
sS'VFC'
p1569
S'VF Corp'
p1570
sS'LII'
p1571
S'Lennox International Inc'
p1572
sS'CHUBK'
p1573
S'CommerceHub Inc'
p1574
sS'FNF'
p1575
S'Fidelity National Financial Inc'
p1576
sS'FND'
p1577
S'Floor & Decor Holdings Inc'
p1578
sS'FNB'
p1579
S'F.N.B. Corp'
p1580
sS'CLVS'
p1581
S'Clovis Oncology Inc'
p1582
sS'EQC'
p1583
S'Equity Commonwealth'
p1584
sS'OMC'
p1585
S'Omnicom Group Inc'
p1586
sS'WTR'
p1587
S'Aqua America Inc'
p1588
sS'WTS'
p1589
S'Watts Water Technologies Inc'
p1590
sS'RARE'
p1591
S'Ultragenyx Pharmaceutical Inc'
p1592
sS'WTW'
p1593
S'Weight Watchers International Inc'
p1594
sS'MAA'
p1595
S'Mid-America Apartment Communities Inc'
p1596
sS'GERN'
p1597
S'Geron Corp'
p1598
sS'RE'
p1599
S'Everest Re Group Ltd'
p1600
sS'RF'
p1601
S'Regions Financial Corp'
p1602
sS'RL'
p1603
S'Ralph Lauren Corp'
p1604
sS'MOFG'
p1605
S'Midwestone Financial Group Inc'
p1606
sS'GPS'
p1607
S'Gap Inc'
p1608
sS'RH'
p1609
S'RH'
p1610
sS'WTM'
p1611
S'White Mountains Insurance Group Ltd'
p1612
sS'TOWN'
p1613
S'Towne Bank'
p1614
sS'TPC'
p1615
S'Tutor Perini Corp'
p1616
sS'HBNC'
p1617
S'Horizon Bancorp'
p1618
sS'TPL'
p1619
S'Texas Pacific Land Trust'
p1620
sS'HRS'
p1621
S'Harris Corp'
p1622
sS'TPH'
p1623
S'TRI Pointe Group Inc'
p1624
sS'TCMD'
p1625
S'Tactile Systems Technology Inc'
p1626
sS'HRL'
p1627
S'Hormel Foods Corp'
p1628
sS'HRI'
p1629
S'Herc Holdings Inc'
p1630
sS'TPR'
p1631
S'Tapestry Inc'
p1632
sS'HRG'
p1633
S'HRG Group Inc'
p1634
sS'OLP'
p1635
S'One Liberty Properties Inc'
p1636
sS'HRC'
p1637
S'Hill-Rom Holdings Inc'
p1638
sS'HRB'
p1639
S'H & R Block Inc'
p1640
sS'RHP'
p1641
S'Ryman Hospitality Properties Inc'
p1642
sS'KAI'
p1643
S'Kadant Inc'
p1644
sS'RHT'
p1645
S'Red Hat Inc'
p1646
sS'RHI'
p1647
S'Robert Half International Inc'
p1648
sS'KAR'
p1649
S'KAR Auction Services Inc'
p1650
sS'ALRM'
p1651
S'Alarm.com Holdings Inc'
p1652
sS'MTDR'
p1653
S'Matador Resources Co'
p1654
sS'FCFS'
p1655
S'FirstCash Inc'
p1656
sS'WFC'
p1657
S'Wells Fargo & Co'
p1658
sS'HZNP'
p1659
S'Horizon Pharma PLC'
p1660
sS'COLL'
p1661
S'Collegium Pharmaceutical Inc'
p1662
sS'BMRN'
p1663
S'Biomarin Pharmaceutical Inc'
p1664
sS'ABEO'
p1665
S'Abeona Therapeutics Inc'
p1666
sS'COLD'
p1667
S'Americold Realty Trust'
p1668
sS'COLB'
p1669
S'Columbia Banking System Inc'
p1670
sS'WFT'
p1671
S'Weatherford International PLC'
p1672
sS'UGI'
p1673
S'UGI Corp'
p1674
sS'RTN'
p1675
S'Raytheon Co'
p1676
sS'SGMO'
p1677
S'Sangamo Therapeutics Inc'
p1678
sS'SEIC'
p1679
S'SEI Investments Co'
p1680
sS'SGMS'
p1681
S'Scientific Games Corp'
p1682
sS'ALNY'
p1683
S'Alnylam Pharmaceuticals Inc'
p1684
sS'PLNT'
p1685
S'Planet Fitness Inc'
p1686
sS'DISCA'
p1687
S'Discovery Inc'
p1688
sS'RFP'
p1689
S'Resolute Forest Products Inc'
p1690
sS'OXY'
p1691
S'Occidental Petroleum Corp'
p1692
sS'G'
p1693
S'Genpact Ltd'
p1694
sS'DISCK'
p1695
S'Discovery Inc'
p1696
sS'OXM'
p1697
S'Oxford Industries Inc'
p1698
sS'ENR'
p1699
S'Energizer Holdings Inc'
p1700
sS'ENS'
p1701
S'EnerSys'
p1702
sS'ENT'
p1703
S'Global Eagle Entertainment Inc'
p1704
sS'ENV'
p1705
S'Envestnet Inc'
p1706
sS'BKI'
p1707
S'Black Knight Inc'
p1708
sS'OCFC'
p1709
S'OceanFirst Financial Corp'
p1710
sS'TEN'
p1711
S'Tenneco Inc'
p1712
sS'YELP'
p1713
S'Yelp Inc'
p1714
sS'CZR'
p1715
S'Caesars Entertainment Corp'
p1716
sS'LXRX'
p1717
S'Lexicon Pharmaceuticals Inc'
p1718
sS'CLDT'
p1719
S'Chatham Lodging Trust'
p1720
sS'NVCR'
p1721
S'Novocure Ltd'
p1722
sS'CLDR'
p1723
S'Cloudera Inc'
p1724
sS'CLDX'
p1725
S'Celldex Therapeutics Inc'
p1726
sS'AGII'
p1727
S'Argo Group International Holdings Ltd'
p1728
sS'AGIO'
p1729
S'Agios Pharmaceuticals Inc'
p1730
sS'WCG'
p1731
S'WellCare Health Plans Inc'
p1732
sS'ATO'
p1733
S'Atmos Energy Corp'
p1734
sS'ATH'
p1735
S'Athene Holding Ltd'
p1736
sS'ATI'
p1737
S'Allegheny Technologies Inc'
p1738
sS'ATU'
p1739
S'Actuant Corp'
p1740
sS'ATR'
p1741
S'Aptargroup Inc'
p1742
sS'CBSH'
p1743
S'Commerce Bancshares Inc'
p1744
sS'NCMI'
p1745
S'National CineMedia Inc'
p1746
sS'CVGW'
p1747
S'Calavo Growers Inc'
p1748
sS'EGP'
p1749
S'Eastgroup Properties Inc'
p1750
sS'AXDX'
p1751
S'Accelerate Diagnostics Inc'
p1752
sS'LBTYK'
p1753
S'Liberty Global PLC'
p1754
sS'XNCR'
p1755
S'Xencor Inc'
p1756
sS'SASR'
p1757
S'Sandy Spring Bancorp Inc'
p1758
sS'PODD'
p1759
S'Insulet Corp'
p1760
sS'TTEC'
p1761
S'TTEC Holdings Inc'
p1762
sS'SEE'
p1763
S'Sealed Air Corp'
p1764
sS'TTEK'
p1765
S'Tetra Tech Inc'
p1766
sS'PVH'
p1767
S'PVH Corp'
p1768
sS'SEM'
p1769
S'Select Medical Holdings Corp'
p1770
sS'FRC'
p1771
S'First Republic Bank'
p1772
sS'CLH'
p1773
S'Clean Harbors Inc'
p1774
sS'HASI'
p1775
S'Hannon Armstrong Sustainable Infrastructure Capital Inc'
p1776
sS'CARS'
p1777
S'Cars.com Inc'
p1778
sS'CLF'
p1779
S'Cleveland-Cliffs Inc'
p1780
sS'CLB'
p1781
S'Core Laboratories NV'
p1782
sS'NERV'
p1783
S'Minerva Neurosciences Inc'
p1784
sS'PDM'
p1785
S'Piedmont Office Realty Trust Inc'
p1786
sS'MRVL'
p1787
S'Marvell Technology Group Ltd'
p1788
sS'CLX'
p1789
S'Clorox Co'
p1790
sS'CARO'
p1791
S'Carolina Financial Corp'
p1792
sS'FRT'
p1793
S'Federal Realty Investment Trust'
p1794
sS'FCNCA'
p1795
S'First Citizens BancShares Inc'
p1796
sS'HMSY'
p1797
S'HMS Holdings Corp'
p1798
sS'CARA'
p1799
S'Cara Therapeutics Inc'
p1800
sS'CARG'
p1801
S'CarGurus Inc'
p1802
sS'CLR'
p1803
S'Continental Resources Inc'
p1804
sS'INFO'
p1805
S'IHS Markit Ltd'
p1806
sS'INFN'
p1807
S'Infinera Corp'
p1808
sS'EXPE'
p1809
S'Expedia Inc'
p1810
sS'INFI'
p1811
S'Infinity Pharmaceuticals Inc'
p1812
sS'CRC'
p1813
S'California Resources Corp'
p1814
sS'AXTA'
p1815
S'Axalta Coating Systems Ltd'
p1816
sS'ZEN'
p1817
S'Zendesk Inc'
p1818
sS'COBZ'
p1819
S'CoBiz Financial Inc'
p1820
sS'DO'
p1821
S'Diamond Offshore Drilling Inc'
p1822
sS'ACCO'
p1823
S'ACCO Brands Corp'
p1824
sS'SWM'
p1825
S'Schweitzer-Mauduit International Inc'
p1826
sS'DK'
p1827
S'Delek US Holdings Inc'
p1828
sS'TTWO'
p1829
S'Take-Two Interactive Software Inc'
p1830
sS'SWN'
p1831
S'Southwestern Energy Co'
p1832
sS'DF'
p1833
S'Dean Foods Co'
p1834
sS'DG'
p1835
S'Dollar General Corp'
p1836
sS'DE'
p1837
S'Deere & Co'
p1838
sS'MGLN'
p1839
S'Magellan Health Inc'
p1840
sS'MULE'
p1841
S'MuleSoft Inc'
p1842
sS'SWX'
p1843
S'Southwest Gas Holdings Inc'
p1844
sS'VYGR'
p1845
S'Voyager Therapeutics Inc'
p1846
sS'DX'
p1847
S'Dynex Capital Inc'
p1848
sS'DY'
p1849
S'Dycom Industries Inc'
p1850
sS'NYLD.A'
p1851
S'NRG Yield Inc'
p1852
sS'TGT'
p1853
S'Target Corp'
p1854
sS'HBAN'
p1855
S'Huntington Bancshares Inc'
p1856
sS'LILAK'
p1857
S'Liberty Latin America Ltd'
p1858
sS'KBAL'
p1859
S'Kimball International Inc'
p1860
sS'TCBK'
p1861
S'Trico Bancshares'
p1862
sS'ATVI'
p1863
S'Activision Blizzard Inc'
p1864
sS'AOBC'
p1865
S'American Outdoor Brands Corp'
p1866
sS'TGI'
p1867
S'Triumph Group Inc'
p1868
sS'MYGN'
p1869
S'Myriad Genetics Inc'
p1870
sS'BPFH'
p1871
S'Boston Private Financial Holdings Inc'
p1872
sS'LMNX'
p1873
S'Luminex Corp'
p1874
sS'SYBT'
p1875
S'Stock Yards Bancorp Inc'
p1876
sS'INTC'
p1877
S'Intel Corp'
p1878
sS'INTL'
p1879
S'INTL FCStone Inc'
p1880
sS'RGLS'
p1881
S'Regulus Therapeutics Inc'
p1882
sS'MLI'
p1883
S'Mueller Industries Inc'
p1884
sS'MLM'
p1885
S'Martin Marietta Materials Inc'
p1886
sS'INTU'
p1887
S'Intuit Inc'
p1888
sS'DHX'
p1889
S'DHI Group Inc'
p1890
sS'BOFI'
p1891
S'BofI Holding Inc'
p1892
sS'AZPN'
p1893
S'Aspen Technology Inc'
p1894
sS'XCRA'
p1895
S'Xcerra Corp'
p1896
sS'DHR'
p1897
S'Danaher Corp'
p1898
sS'AJG'
p1899
S'Arthur J Gallagher & Co'
p1900
sS'RNST'
p1901
S'Renasant Corp'
p1902
sS'CALD'
p1903
S'Callidus Software Inc'
p1904
sS'VICI'
p1905
S'VICI Properties Inc'
p1906
sS'NRG'
p1907
S'NRG Energy Inc'
p1908
sS'NRE'
p1909
S'Northstar Realty Europe Corp'
p1910
sS'VICR'
p1911
S'Vicor Corp'
p1912
sS'NRZ'
p1913
S'New Residential Investment Corp'
p1914
sS'SJI'
p1915
S'South Jersey Industries Inc'
p1916
sS'GTLS'
p1917
S'Chart Industries Inc'
p1918
sS'PX'
p1919
S'Praxair Inc'
p1920
sS'RRTS'
p1921
S'Roadrunner Transportation Systems Inc'
p1922
sS'WD'
p1923
S'Walker & Dunlop Inc'
p1924
sS'WM'
p1925
S'Waste Management Inc'
p1926
sS'MSEX'
p1927
S'Middlesex Water Co'
p1928
sS'WK'
p1929
S'Workiva Inc'
p1930
sS'IIVI'
p1931
S'II-VI Inc'
p1932
sS'WU'
p1933
S'Western Union Co'
p1934
sS'WR'
p1935
S'Westar Energy Inc'
p1936
sS'WP'
p1937
S'Worldpay Inc'
p1938
sS'WY'
p1939
S'Weyerhaeuser Co'
p1940
sS'DKS'
p1941
S"Dick's Sporting Goods Inc"
p1942
sS'FPRX'
p1943
S'Five Prime Therapeutics Inc'
p1944
sS'HSC'
p1945
S'Harsco Corp'
p1946
sS'ARII'
p1947
S'American Railcar Industries Inc'
p1948
sS'HST'
p1949
S'Host Hotels & Resorts Inc'
p1950
sS'RIG'
p1951
S'Transocean Ltd'
p1952
sS'HSY'
p1953
S'Hershey Co'
p1954
sS'BUSE'
p1955
S'First Busey Corp'
p1956
sS'CTSH'
p1957
S'Cognizant Technology Solutions Corp'
p1958
sS'KNL'
p1959
S'Knoll Inc'
p1960
sS'IART'
p1961
S'Integra LifeSciences Holdings Corp'
p1962
sS'MED'
p1963
S'Medifast Inc'
p1964
sS'H'
p1965
S'Hyatt Hotels Corp'
p1966
sS'KND'
p1967
S'Kindred Healthcare Inc'
p1968
sS'SGEN'
p1969
S'Seattle Genetics Inc'
p1970
sS'HAE'
p1971
S'Haemonetics Corp'
p1972
sS'LEXEA'
p1973
S'Liberty Expedia Holdings Inc'
p1974
sS'MSFT'
p1975
S'Microsoft Corp'
p1976
sS'TRMB'
p1977
S'Trimble Inc'
p1978
sS'KNX'
p1979
S'Knight-Swift Transportation Holdings Inc'
p1980
sS'RNET'
p1981
S'RigNet Inc'
p1982
sS'TRMK'
p1983
S'Trustmark Corp'
p1984
sS'HAS'
p1985
S'Hasbro Inc'
p1986
sS'TPIC'
p1987
S'TPI Composites Inc'
p1988
sS'QURE'
p1989
S'Uniqure NV'
p1990
sS'LXU'
p1991
S'LSB Industries Inc'
p1992
sS'SYF'
p1993
S'Synchrony Financial'
p1994
sS'LXP'
p1995
S'Lexington Realty Trust'
p1996
sS'SYK'
p1997
S'Stryker Corp'
p1998
sS'LNDC'
p1999
S'Landec Corp'
p2000
sS'XEC'
p2001
S'Cimarex Energy Co'
p2002
sS'SYY'
p2003
S'Sysco Corp'
p2004
sS'SYX'
p2005
S'Systemax Inc'
p2006
sS'TOWR'
p2007
S'Tower International Inc'
p2008
sS'GWRE'
p2009
S'Guidewire Software Inc'
p2010
sS'EME'
p2011
S'EMCOR Group Inc'
p2012
sS'RGR'
p2013
S'Sturm Ruger & Company Inc'
p2014
sS'RGS'
p2015
S'Regis Corp'
p2016
sS'EMN'
p2017
S'Eastman Chemical Co'
p2018
sS'HELE'
p2019
S'Helen of Troy Ltd'
p2020
sS'RGA'
p2021
S'Reinsurance Group of America Inc'
p2022
sS'WTBA'
p2023
S'West Bancorporation Inc'
p2024
sS'EMR'
p2025
S'Emerson Electric Co'
p2026
sS'CNSL'
p2027
S'Consolidated Communications Holdings Inc'
p2028
sS'LIND'
p2029
S'Lindblad Expeditions Holdings Inc'
p2030
sS'SSTK'
p2031
S'Shutterstock Inc'
p2032
sS'CCMP'
p2033
S'Cabot Microelectronics Corp'
p2034
sS'LDL'
p2035
S'Lydall Inc'
p2036
sS'OLED'
p2037
S'Universal Display Corp'
p2038
sS'TMUS'
p2039
S'T-Mobile US Inc'
p2040
sS'FOR'
p2041
S'Forestar Group Inc'
p2042
sS'FOX'
p2043
S'Twenty-First Century Fox Inc'
p2044
sS'ECHO'
p2045
S'Echo Global Logistics Inc'
p2046
sS'FOE'
p2047
S'Ferro Corp'
p2048
sS'BXMT'
p2049
S'Blackstone Mortgage Trust Inc'
p2050
sS'PDFS'
p2051
S'PDF Solutions Inc'
p2052
sS'VGR'
p2053
S'Vector Group Ltd'
p2054
sS'WWW'
p2055
S'Wolverine World Wide Inc'
p2056
sS'SPKE'
p2057
S'Spark Energy Inc'
p2058
sS'ULTI'
p2059
S'Ultimate Software Group Inc'
p2060
sS'MKTX'
p2061
S'Marketaxess Holdings Inc'
p2062
sS'WWE'
p2063
S'World Wrestling Entertainment Inc'
p2064
sS'WWD'
p2065
S'Woodward Inc'
p2066
sS'QADA'
p2067
S'QAD Inc'
p2068
sS'WINA'
p2069
S'Winmark Corp'
p2070
sS'WING'
p2071
S'Wingstop Inc'
p2072
sS'ILG'
p2073
S'ILG Inc'
p2074
sS'COR'
p2075
S'CoreSite Realty Corp'
p2076
sS'FISI'
p2077
S'Financial Institutions Inc'
p2078
sS'PEP'
p2079
S'PepsiCo Inc'
p2080
sS'KLXI'
p2081
S'KLX Inc'
p2082
sS'PEN'
p2083
S'Penumbra Inc'
p2084
sS'FSS'
p2085
S'Federal Signal Corp'
p2086
sS'FISV'
p2087
S'Fiserv Inc'
p2088
sS'PEI'
p2089
S'Pennsylvania Real Estate Investment Trust'
p2090
sS'COG'
p2091
S'Cabot Oil & Gas Corp'
p2092
sS'COF'
p2093
S'Capital One Financial Corp'
p2094
sS'PEG'
p2095
S'Public Service Enterprise Group Inc'
p2096
sS'COL'
p2097
S'Rockwell Collins Inc'
p2098
sS'COO'
p2099
S'Cooper Companies Inc'
p2100
sS'PZZA'
p2101
S"Papa John's International Inc"
p2102
sS'CASH'
p2103
S'Cash Component'
p2104
sS'ASGN'
p2105
S'On Assignment Inc'
p2106
sS'CASS'
p2107
S'Cass Information Systems Inc'
p2108
sS'AMWD'
p2109
S'American Woodmark Corp'
p2110
sS'PENN'
p2111
S'Penn National Gaming Inc'
p2112
sS'CASY'
p2113
S'Caseys General Stores Inc'
p2114
sS'WAL'
p2115
S'Western Alliance Bancorp'
p2116
sS'SHEN'
p2117
S'Shenandoah Telecommunications Co'
p2118
sS'WAB'
p2119
S'Westinghouse Air Brake Technologies Corp'
p2120
sS'COMM'
p2121
S'CommScope Holding Company Inc'
p2122
sS'FEYE'
p2123
S'FireEye Inc'
p2124
sS'UNVR'
p2125
S'Univar Inc'
p2126
sS'WAT'
p2127
S'Waters Corp'
p2128
sS'ZTS'
p2129
S'Zoetis Inc'
p2130
sS'CPLA'
p2131
S'Capella Education Co'
p2132
sS'PLOW'
p2133
S'Douglas Dynamics Inc'
p2134
sS'RUN'
p2135
S'Sunrun Inc'
p2136
sS'NYMT'
p2137
S'New York Mortgage Trust Inc'
p2138
sS'BLMN'
p2139
S"Bloomin' Brands Inc"
p2140
sS'ZOES'
p2141
S"Zoe's Kitchen Inc"
p2142
sS'UFS'
p2143
S'Domtar Corp'
p2144
sS'TYPE'
p2145
S'Monotype Imaging Holdings Inc'
p2146
sS'TELL'
p2147
S'Tellurian Inc'
p2148
sS'DIN'
p2149
S'Dine Brands Global Inc'
p2150
sS'FNSR'
p2151
S'Finisar Corp'
p2152
sS'RECN'
p2153
S'Resources Connection Inc'
p2154
sS'GNW'
p2155
S'Genworth Financial Inc'
p2156
sS'AIZ'
p2157
S'Assurant Inc'
p2158
sS'AXGN'
p2159
S'AxoGen Inc'
p2160
sS'AIT'
p2161
S'Applied Industrial Technologies Inc'
p2162
sS'MKL'
p2163
S'Markel Corp'
p2164
sS'AMED'
p2165
S'Amedisys Inc'
p2166
sS'VDSI'
p2167
S'VASCO Data Security International Inc'
p2168
sS'AIR'
p2169
S'AAR Corp'
p2170
sS'GNC'
p2171
S'GNC Holdings Inc'
p2172
sS'AIN'
p2173
S'Albany International Corp'
p2174
sS'RPAI'
p2175
S'Retail Properties of America Inc'
p2176
sS'INSW'
p2177
S'International Seaways Inc'
p2178
sS'GNK'
p2179
S'Genco Shipping & Trading Ltd'
p2180
sS'AIG'
p2181
S'American International Group Inc'
p2182
sS'MCK'
p2183
S'McKesson Corp'
p2184
sS'GNL'
p2185
S'Global Net Lease Inc'
p2186
sS'DIS'
p2187
S'Walt Disney Co'
p2188
sS'SEMG'
p2189
S'SemGroup Corp'
p2190
sS'TVTY'
p2191
S'Tivity Health Inc'
p2192
sS'QRTEA'
p2193
S'Liberty Interactive Corp'
p2194
sS'NSM'
p2195
S'Nationstar Mortgage Holdings Inc'
p2196
sS'MNST'
p2197
S'Monster Beverage Corp'
p2198
sS'NSA'
p2199
S'National Storage Affiliates Trust'
p2200
sS'NSC'
p2201
S'Norfolk Southern Corp'
p2202
sS'SQBG'
p2203
S'Sequential Brands Group Inc'
p2204
sS'CHH'
p2205
S'Choice Hotels International Inc'
p2206
sS'NSP'
p2207
S'Insperity Inc'
p2208
sS'LCII'
p2209
S'LCI Industries'
p2210
sS'PLYA'
p2211
S'Playa Hotels & Resorts NV'
p2212
sS'PANW'
p2213
S'Palo Alto Networks Inc'
p2214
sS'I'
p2215
S'Intelsat SA'
p2216
sS'IP'
p2217
S'International Paper Co'
p2218
sS'IR'
p2219
S'Ingersoll-Rand PLC'
p2220
sS'IRT'
p2221
S'Independence Realty Trust Inc'
p2222
sS'UTHR'
p2223
S'United Therapeutics Corp'
p2224
sS'UTL'
p2225
S'Unitil Corp'
p2226
sS'L'
p2227
S'Loews Corp'
p2228
sS'CBRL'
p2229
S'Cracker Barrel Old Country Store Inc'
p2230
sS'SEDG'
p2231
S'Solaredge Technologies Inc'
p2232
sS'IRM'
p2233
S'Iron Mountain Inc'
p2234
sS'CBRE'
p2235
S'CBRE Group Inc'
p2236
sS'UTX'
p2237
S'United Technologies Corp'
p2238
sS'ACRS'
p2239
S'Aclaris Therapeutics Inc'
p2240
sS'SATS'
p2241
S'EchoStar Corp'
p2242
sS'PWR'
p2243
S'Quanta Services Inc'
p2244
sS'QUOT'
p2245
S'Quotient Technology Inc'
p2246
sS'AQUA'
p2247
S'Evoqua Water Technologies Corp'
p2248
sS'MRO'
p2249
S'Marathon Oil Corp'
p2250
sS'DXCM'
p2251
S'DexCom Inc'
p2252
sS'ACRE'
p2253
S'Ares Commercial Real Estate Corp'
p2254
sS'LCI'
p2255
S'Lannett Company Inc'
p2256
sS'BOX'
p2257
S'Box Inc'
p2258
sS'HBI'
p2259
S'HanesBrands Inc'
p2260
sS'TLRD'
p2261
S'Tailored Brands Inc'
p2262
sS'COP'
p2263
S'ConocoPhillips'
p2264
sS'WELL'
p2265
S'Welltower Inc'
p2266
sS'EGOV'
p2267
S'NIC Inc'
p2268
sS'EPR'
p2269
S'EPR Properties'
p2270
sS'CTRE'
p2271
S'CareTrust REIT Inc'
p2272
sS'HBB'
p2273
S'Hamilton Beach Brands Holding Co'
p2274
sS'BOH'
p2275
S'Bank of Hawaii Corp'
p2276
sS'NAV'
p2277
S'Navistar International Corp'
p2278
sS'PARR'
p2279
S'Par Pacific Holdings Inc'
p2280
sS'PRFT'
p2281
S'Perficient Inc'
p2282
sS'EPE'
p2283
S'EP Energy Corp'
p2284
sS'EPC'
p2285
S'Edgewell Personal Care Co'
p2286
sS'WAFD'
p2287
S'Washington Federal Inc'
p2288
sS'NDLS'
p2289
S'Noodles & Co'
p2290
sS'LYV'
p2291
S'Live Nation Entertainment Inc'
p2292
sS'SXC'
p2293
S'SunCoke Energy Inc'
p2294
sS'VVV'
p2295
S'Valvoline Inc'
p2296
sS'CRZO'
p2297
S'Carrizo Oil & Gas Inc'
p2298
sS'CENT'
p2299
S'Central Garden & Pet Co'
p2300
sS'CGNX'
p2301
S'Cognex Corp'
p2302
sS'SXT'
p2303
S'Sensient Technologies Corp'
p2304
sS'VVI'
p2305
S'Viad Corp'
p2306
sS'VVC'
p2307
S'Vectren Corp'
p2308
sS'ASPS'
p2309
S'Altisource Portfolio Solutions SA'
p2310
sS'SAFM'
p2311
S'Sanderson Farms Inc'
p2312
sS'SAFT'
p2313
S'Safety Insurance Group Inc'
p2314
sS'SVU'
p2315
S'Supervalu Inc'
p2316
sS'PFSI'
p2317
S'PennyMac Financial Services Inc'
p2318
sS'FSP'
p2319
S'Franklin Street Properties Corp'
p2320
sS'MDSO'
p2321
S'Medidata Solutions Inc'
p2322
sS'EDIT'
p2323
S'Editas Medicine Inc'
p2324
sS'XPER'
p2325
S'Xperi Corp'
p2326
sS'BOKF'
p2327
S'BOK Financial Corp'
p2328
sS'GXP'
p2329
S'Great Plains Energy Inc'
p2330
sS'AMKR'
p2331
S'Amkor Technology Inc'
p2332
sS'TPX'
p2333
S'Tempur Sealy International Inc'
p2334
sS'NCBS'
p2335
S'Nicolet Bankshares Inc'
p2336
sS'MTRN'
p2337
S'Materion Corp'
p2338
sS'HOG'
p2339
S'Harley-Davidson Inc'
p2340
sS'BURL'
p2341
S'Burlington Stores Inc'
p2342
sS'FLS'
p2343
S'Flowserve Corp'
p2344
sS'FLR'
p2345
S'Fluor Corp'
p2346
sS'FLT'
p2347
S'Fleetcor Technologies Inc'
p2348
sS'OSIS'
p2349
S'OSI Systems Inc'
p2350
sS'DBD'
p2351
S'Diebold Nixdorf Inc'
p2352
sS'FINL'
p2353
S'Finish Line Inc'
p2354
sS'FLO'
p2355
S'Flowers Foods Inc'
p2356
sS'DLR'
p2357
S'Digital Realty Trust Inc'
p2358
sS'UFCS'
p2359
S'United Fire Group Inc'
p2360
sS'LKQ'
p2361
S'LKQ Corp'
p2362
sS'APH'
p2363
S'Amphenol Corp'
p2364
sS'PEB'
p2365
S'Pebblebrook Hotel Trust'
p2366
sS'EFII'
p2367
S'Electronics for Imaging Inc'
p2368
sS'WVE'
p2369
S'WAVE Life Sciences Ltd'
p2370
sS'BDGE'
p2371
S'Bridge Bancorp Inc'
p2372
sS'CREE'
p2373
S'Cree Inc'
p2374
sS'TRN'
p2375
S'Trinity Industries Inc'
p2376
sS'TRC'
p2377
S'Tejon Ranch Co'
p2378
sS'FCPT'
p2379
S'Four Corners Property Trust Inc'
p2380
sS'TRS'
p2381
S'TriMas Corp'
p2382
sS'TRU'
p2383
S'TransUnion'
p2384
sS'APLE'
p2385
S'Apple Hospitality REIT Inc'
p2386
sS'TRV'
p2387
S'Travelers Companies Inc'
p2388
sS'HOV'
p2389
S'Hovnanian Enterprises Inc'
p2390
sS'HTA'
p2391
S'Healthcare Trust Of America Inc'
p2392
sS'RTEC'
p2393
S'Rudolph Technologies Inc'
p2394
sS'HTH'
p2395
S'Hilltop Holdings Inc'
p2396
sS'TNC'
p2397
S'Tennant Co'
p2398
sS'TFX'
p2399
S'Teleflex Inc'
p2400
sS'GNRC'
p2401
S'Generac Holdings Inc'
p2402
sS'NXTM'
p2403
S'NxStage Medical Inc'
p2404
sS'FN'
p2405
S'Fabrinet'
p2406
sS'KTWO'
p2407
S'K2M Group Holdings Inc'
p2408
sS'BMTC'
p2409
S'Bryn Mawr Bank Corp'
p2410
sS'GNRT'
p2411
S'Gener8 Maritime Inc'
p2412
sS'LKSD'
p2413
S'LSC Communications Inc'
p2414
sS'ZBH'
p2415
S'Zimmer Biomet Holdings Inc'
p2416
sS'NI'
p2417
S'NiSource Inc'
p2418
sS'NK'
p2419
S'NantKwest Inc'
p2420
sS'ODP'
p2421
S'Office Depot Inc'
p2422
sS'RRD'
p2423
S'RR Donnelley & Sons Co'
p2424
sS'RRC'
p2425
S'Range Resources Corp'
p2426
sS'NE'
p2427
S'Noble Corporation PLC'
p2428
sS'NX'
p2429
S'Quanex Building Products Corp'
p2430
sS'TECH'
p2431
S'Bio-Techne Corp'
p2432
sS'MCRI'
p2433
S'Monarch Casino & Resort Inc'
p2434
sS'TECD'
p2435
S'Tech Data Corp'
p2436
sS'NR'
p2437
S'Newpark Resources Inc'
p2438
sS'MCRB'
p2439
S'Seres Therapeutics Inc'
p2440
sS'RRR'
p2441
S'Red Rock Resorts Inc'
p2442
sS'NYLD'
p2443
S'NRG Yield Inc'
p2444
sS'ELF'
p2445
S'e.l.f. Beauty Inc'
p2446
sS'RBBN'
p2447
S'Ribbon Communications Inc'
p2448
sS'ELY'
p2449
S'Callaway Golf Co'
p2450
sS'RDC'
p2451
S'Rowan Companies PLC'
p2452
sS'ELS'
p2453
S'Equity LifeStyle Properties Inc'
p2454
sS'RDN'
p2455
S'Radian Group Inc'
p2456
sS'ICON'
p2457
S'Iconix Brand Group Inc'
p2458
sS'LEA'
p2459
S'Lear Corp'
p2460
sS'FBP'
p2461
S'First Bancorp'
p2462
sS'FRME'
p2463
S'First Merchants Corp'
p2464
sS'LEG'
p2465
S'Leggett & Platt Inc'
p2466
sS'SPXC'
p2467
S'SPX Corp'
p2468
sS'FBC'
p2469
S'Flagstar Bancorp Inc'
p2470
sS'IPAR'
p2471
S'Inter Parfums Inc'
p2472
sS'FBK'
p2473
S'FB Financial Corp'
p2474
sS'NLNK'
p2475
S'NewLink Genetics Corp'
p2476
sS'FBM'
p2477
S'Foundation Building Materials Inc'
p2478
sS'USG'
p2479
S'USG Corp'
p2480
sS'HOPE'
p2481
S'Hope Bancorp Inc'
p2482
sS'AZK'
p2483
S'Hertz Global Holdings Inc'
p2484
sS'USB'
p2485
S'U.S. Bancorp'
p2486
sS'AZO'
p2487
S'Autozone Inc'
p2488
sS'AMGP'
p2489
S'Antero Midstream GP LP'
p2490
sS'USM'
p2491
S'United States Cellular Corp'
p2492
sS'IQV'
p2493
S'IQVIA Holdings Inc'
p2494
sS'DFIN'
p2495
S'Donnelley Financial Solutions Inc'
p2496
sS'AZZ'
p2497
S'AZZ Inc'
p2498
sS'MXIM'
p2499
S'Maxim Integrated Products Inc'
p2500
sS'LDOS'
p2501
S'Leidos Holdings Inc'
p2502
sS'NFBK'
p2503
S'Northfield Bancorp Inc'
p2504
sS'PCAR'
p2505
S'Paccar Inc'
p2506
sS'SGY'
p2507
S'Stone Energy Corp'
p2508
sS'SGH'
p2509
S'Smart Global Holdings Inc'
p2510
sS'EIGI'
p2511
S'Endurance International Group Holdings Inc'
p2512
sS'JONE'
p2513
S'Jones Energy Inc'
p2514
sS'PXD'
p2515
S'Pioneer Natural Resources Co'
p2516
sS'STFC'
p2517
S'State Auto Financial Corp'
p2518
sS'CNS'
p2519
S'Cohen & Steers Inc'
p2520
sS'CNP'
p2521
S'CenterPoint Energy Inc'
p2522
sS'CWST'
p2523
S'Casella Waste Systems Inc'
p2524
sS'FPI'
p2525
S'Farmland Partners Inc'
p2526
sS'FPH'
p2527
S'Five Point Holdings LLC'
p2528
sS'ICE'
p2529
S'Intercontinental Exchange Inc'
p2530
sS'CNC'
p2531
S'Centene Corp'
p2532
sS'VSI'
p2533
S'Vitamin Shoppe Inc'
p2534
sS'CNO'
p2535
S'CNO Financial Group Inc'
p2536
sS'CNK'
p2537
S'Cinemark Holdings Inc'
p2538
sS'PFE'
p2539
S'Pfizer Inc'
p2540
sS'PFG'
p2541
S'Principal Financial Group Inc'
p2542
sS'MAXR'
p2543
S'Maxar Technologies Ltd'
p2544
sS'MRTN'
p2545
S'Marten Transport Ltd'
p2546
sS'LGF.A'
p2547
S'Lions Gate Entertainment Corp'
p2548
sS'LGF.B'
p2549
S'Lions Gate Entertainment Corp'
p2550
sS'CATO'
p2551
S'Cato Corp'
p2552
sS'PFS'
p2553
S'Provident Financial Services Inc'
p2554
sS'INDB'
p2555
S'Independent Bank Corp'
p2556
sS'CATY'
p2557
S'Cathay General Bancorp'
p2558
sS'AMTD'
p2559
S'TD Ameritrade Holding Corp'
p2560
sS'PSMT'
p2561
S'PriceSmart Inc'
p2562
sS'SIR'
p2563
S'Select Income Reit'
p2564
sS'JBHT'
p2565
S'J B Hunt Transport Services Inc'
p2566
sS'LSTR'
p2567
S'Landstar System Inc'
p2568
sS'PFPT'
p2569
S'Proofpoint Inc'
p2570
sS'CLW'
p2571
S'Clearwater Paper Corp'
p2572
sS'SIX'
p2573
S'Six Flags Entertainment Corp'
p2574
sS'SAGE'
p2575
S'SAGE Therapeutics Inc'
p2576
sS'CIVI'
p2577
S'Civitas Solutions Inc'
p2578
sS'SIG'
p2579
S'Signet Jewelers Ltd'
p2580
sS'MGNX'
p2581
S'MacroGenics Inc'
p2582
sS'EOG'
p2583
S'EOG Resources Inc'
p2584
sS'ESPR'
p2585
S'Esperion Therapeutics Inc'
p2586
sS'ACET'
p2587
S'Aceto Corp'
p2588
sS'RETA'
p2589
S'Reata Pharmaceuticals Inc'
p2590
sS'MTGE'
p2591
S'MTGE Investment Corp'
p2592
sS'TAP'
p2593
S'Molson Coors Brewing Co'
p2594
sS'RLGY'
p2595
S'Realogy Holdings Corp'
p2596
sS'AVAV'
p2597
S'AeroVironment Inc'
p2598
sS'CBS.A'
p2599
S'CBS Corp'
p2600
sS'MDRX'
p2601
S'Allscripts Healthcare Solutions Inc'
p2602
sS'BOJA'
p2603
S'Bojangles Inc'
p2604
sS'MOG.A'
p2605
S'Moog Inc'
p2606
sS'GIS'
p2607
S'General Mills Inc'
p2608
sS'LNCE'
p2609
S"Snyder's-Lance Inc"
p2610
sS'UFI'
p2611
S'Unifi Inc'
p2612
sS'FLXN'
p2613
S'Flexion Therapeutics Inc'
p2614
sS'FLXS'
p2615
S'Flexsteel Industries Inc'
p2616
sS'LION'
p2617
S'Fidelity Southern Corp'
p2618
sS'HEI.A'
p2619
S'HEICO Corp'
p2620
sS'BRSS'
p2621
S'Global Brass and Copper Holdings Inc'
p2622
sS'VBTX'
p2623
S'Veritex Holdings Inc'
p2624
sS'NPO'
p2625
S'EnPro Industries Inc'
p2626
sS'PACW'
p2627
S'PacWest Bancorp'
p2628
sS'NPK'
p2629
S'National Presto Industries Inc'
p2630
sS'AHH'
p2631
S'Armada Hoffler Properties Inc'
p2632
sS'AHL'
p2633
S'Aspen Insurance Holdings Ltd'
p2634
sS'ITRI'
p2635
S'Itron Inc'
p2636
sS'PTEN'
p2637
S'Patterson-UTI Energy Inc'
p2638
sS'AHP'
p2639
S'Ashford Hospitality Prime Inc'
p2640
sS'PACB'
p2641
S'Pacific Biosciences of California Inc'
p2642
sS'XYL'
p2643
S'Xylem Inc'
p2644
sS'TSN'
p2645
S'Tyson Foods Inc'
p2646
sS'EMCI'
p2647
S'EMC Insurance Group Inc'
p2648
sS'TSE'
p2649
S'Trinseo SA'
p2650
sS'TSC'
p2651
S'TriState Capital Holdings Inc'
p2652
sS'VIAV'
p2653
S'Viavi Solutions Inc'
p2654
sS'APOG'
p2655
S'Apogee Enterprises Inc'
p2656
sS'KBH'
p2657
S'KB Home'
p2658
sS'CPS'
p2659
S'Cooper-Standard Holdings Inc'
p2660
sS'PGRE'
p2661
S'Paramount Group Inc'
p2662
sS'AROW'
p2663
S'Arrow Financial Corp'
p2664
sS'HUM'
p2665
S'Humana Inc'
p2666
sS'HUN'
p2667
S'Huntsman Corp'
p2668
sS'AROC'
p2669
S'Archrock Inc'
p2670
sS'KBR'
p2671
S'KBR Inc'
p2672
sS'UIHC'
p2673
S'United Insurance Holdings Corp'
p2674
sS'HCP'
p2675
S'HCP Inc'
p2676
sS'MHLD'
p2677
S'Maiden Holdings Ltd'
p2678
sS'CDR'
p2679
S'Cedar Realty Trust Inc'
p2680
sS'K'
p2681
S'Kellogg Co'
p2682
sS'BCRX'
p2683
S'BioCryst Pharmaceuticals Inc'
p2684
sS'FFIV'
p2685
S'F5 Networks Inc'
p2686
sS'MSTR'
p2687
S'MicroStrategy Inc'
p2688
sS'TRCO'
p2689
S'Tribune Media Co'
p2690
sS'HCC'
p2691
S'Warrior Met Coal Inc'
p2692
sS'HCA'
p2693
S'HCA Healthcare Inc'
p2694
sS'FFIN'
p2695
S'First Financial Bankshares Inc'
p2696
sS'BLK'
p2697
S'BlackRock Inc'
p2698
sS'FFIC'
p2699
S'Flushing Financial Corp'
p2700
sS'BLD'
p2701
S'TopBuild Corp'
p2702
sS'HCI'
p2703
S'Hci Group Inc'
p2704
sS'NFX'
p2705
S'Newfield Exploration Co'
p2706
sS'WAGE'
p2707
S'WageWorks Inc'
p2708
sS'SAIC'
p2709
S'Science Applications International Corp'
p2710
sS'SAIA'
p2711
S'Saia Inc'
p2712
sS'GCP'
p2713
S'GCP Applied Technologies Inc'
p2714
sS'PRGO'
p2715
S'Perrigo Company PLC'
p2716
sS'SAIL'
p2717
S'SailPoint Technologies Holdings Inc'
p2718
sS'PRGS'
p2719
S'Progress Software Corp'
p2720
sS'LZB'
p2721
S'La-Z-Boy Inc'
p2722
sS'NTNX'
p2723
S'Nutanix Inc'
p2724
sS'REX'
p2725
S'REX American Resources Corp'
p2726
sS'RES'
p2727
S'RPC Inc'
p2728
sS'REV'
p2729
S'Revlon Inc'
p2730
sS'REI'
p2731
S'Ring Energy Inc'
p2732
sS'REN'
p2733
S'Resolute Energy Corp'
p2734
sS'IDTI'
p2735
S'Integrated Device Technology Inc'
p2736
sS'MKC'
p2737
S'McCormick & Company Inc'
p2738
sS'EW'
p2739
S'Edwards Lifesciences Corp'
p2740
sS'FCX'
p2741
S'Freeport-McMoRan Inc'
p2742
sS'STWD'
p2743
S'Starwood Property Trust Inc'
p2744
sS'FCB'
p2745
S'FCB Financial Holdings Inc'
p2746
sS'FCF'
p2747
S'First Commonwealth Financial Corp'
p2748
sS'FICO'
p2749
S'Fair Isaac Corp'
p2750
sS'FCN'
p2751
S'FTI Consulting Inc'
p2752
sS'OUT'
p2753
S'OUTFRONT Media Inc'
p2754
sS'LTS'
p2755
S'Ladenburg Thalmann Financial Services Inc'
p2756
sS'AIV'
p2757
S'Apartment Investment and Management Co'
p2758
sS'VER'
p2759
S'VEREIT Inc'
p2760
sS'LJPC'
p2761
S'La Jolla Pharmaceutical Co'
p2762
sS'INSM'
p2763
S'Insmed Inc'
p2764
sS'LTC'
p2765
S'LTC Properties Inc'
p2766
sS'UAA'
p2767
S'Under Armour Inc'
p2768
sS'CLSD'
p2769
S'Clearside Biomedical Inc'
p2770
sS'FMI'
p2771
S'Foundation Medicine Inc'
p2772
sS'AHT'
p2773
S'Ashford Hospitality Trust Inc'
p2774
sS'TSCO'
p2775
S'Tractor Supply Co'
p2776
sS'IBP'
p2777
S'Installed Building Products Inc'
p2778
sS'TXMD'
p2779
S'TherapeuticsMD Inc'
p2780
sS'FGEN'
p2781
S'FibroGen Inc'
p2782
sS'SR'
p2783
S'Spire Inc'
p2784
sS'SQ'
p2785
S'Square Inc'
p2786
sS'SP'
p2787
S'SP Plus Corp'
p2788
sS'ST'
p2789
S'Sensata Technologies Holding NV'
p2790
sS'BZH'
p2791
S'Beazer Homes USA Inc'
p2792
sS'UNFI'
p2793
S'United Natural Foods Inc'
p2794
sS'SO'
p2795
S'Southern Co'
p2796
sS'SN'
p2797
S'Sanchez Energy Corp'
p2798
sS'SM'
p2799
S'SM Energy Co'
p2800
sS'SC'
p2801
S'Santander Consumer USA Holdings Inc'
p2802
sS'INST'
p2803
S'Instructure Inc'
p2804
sS'SF'
p2805
S'Stifel Financial Corp'
p2806
sS'SD'
p2807
S'SandRidge Energy Inc'
p2808
sS'SWKS'
p2809
S'Skyworks Solutions Inc'
p2810
sS'IBM'
p2811
S'International Business Machines Corp'
p2812
sS'CAR'
p2813
S'Avis Budget Group Inc'
p2814
sS'YRCW'
p2815
S'YRC Worldwide Inc'
p2816
sS'CAT'
p2817
S'Caterpillar Inc'
p2818
sS'CAH'
p2819
S'Cardinal Health Inc'
p2820
sS'PBPB'
p2821
S'Potbelly Corp'
p2822
sS'MGM'
p2823
S'MGM Resorts International'
p2824
sS'INSY'
p2825
S'INSYS Therapeutics Inc'
p2826
sS'CAC'
p2827
S'Camden National Corp'
p2828
sS'BNCL'
p2829
S'Beneficial Bancorp Inc'
p2830
sS'IRBT'
p2831
S'iRobot Corp'
p2832
sS'CAG'
p2833
S'Conagra Brands Inc'
p2834
sS'INCY'
p2835
S'Incyte Corp'
p2836
sS'MRSN'
p2837
S'Mersana Therapeutics Inc'
p2838
sS'DYN'
p2839
S'Dynegy Inc'
p2840
sS'PGR'
p2841
S'Progressive Corp'
p2842
sS'ADTN'
p2843
S'ADTRAN Inc'
p2844
sS'FLEX'
p2845
S'Flex Ltd'
p2846
sS'AKRX'
p2847
S'Akorn Inc'
p2848
sS'ZION'
p2849
S'Zions Bancorp'
p2850
sS'MMSI'
p2851
S'Merit Medical Systems Inc'
p2852
sS'WCC'
p2853
S'Wesco International Inc'
p2854
sS'CACC'
p2855
S'Credit Acceptance Corp'
p2856
sS'ZIOP'
p2857
S'ZIOPHARM Oncology Inc'
p2858
sS'CACI'
p2859
S'CACI International Inc'
p2860
sS'WCN'
p2861
S'Waste Connections Inc'
p2862
sS'UDR'
p2863
S'UDR Inc'
p2864
sS'RSO'
p2865
S'Resource Capital Corp'
p2866
sS'ALKS'
p2867
S'Alkermes Plc'
p2868
sS'RSG'
p2869
S'Republic Services Inc'
p2870
sS'OGS'
p2871
S'ONE Gas Inc'
p2872
sS'CBAY'
p2873
S'CymaBay Therapeutics Inc'
p2874
sS'OGE'
p2875
S'OGE Energy Corp'
p2876
sS'BLKB'
p2877
S'Blackbaud Inc'
p2878
sS'MIK'
p2879
S'Michaels Companies Inc'
p2880
sS'NUVA'
p2881
S'NuVasive Inc'
p2882
sS'COWN'
p2883
S'Cowen Inc'
p2884
sS'GRUB'
p2885
S'GrubHub Inc'
p2886
sS'MIC'
p2887
S'Macquarie Infrastructure Corp'
p2888
sS'RCII'
p2889
S'Rent-A-Center Inc'
p2890
sS'CSFL'
p2891
S'CenterState Bank Corp'
p2892
sS'KALU'
p2893
S'Kaiser Aluminum Corp'
p2894
sS'GHC'
p2895
S'Graham Holdings Co'
p2896
sS'GHL'
p2897
S'Greenhill & Co Inc'
p2898
sS'PPL'
p2899
S'PPL Corp'
p2900
sS'PLUG'
p2901
S'Plug Power Inc'
p2902
sS'FII'
p2903
S'Federated Investors Inc'
p2904
sS'MLAB'
p2905
S'Mesa Laboratories Inc'
p2906
sS'AON'
p2907
S'Aon PLC'
p2908
sS'AOSL'
p2909
S'Alpha and Omega Semiconductor Ltd'
p2910
sS'CTBI'
p2911
S'Community Trust Bancorp Inc'
p2912
sS'AOS'
p2913
S'A. O. Smith Corp'
p2914
sS'PCRX'
p2915
S'Pacira Pharmaceuticals Inc'
p2916
sS'AYI'
p2917
S'Acuity Brands Inc'
p2918
sS'URBN'
p2919
S'Urban Outfitters Inc'
p2920
sS'VIRT'
p2921
S'Virtu Financial Inc'
p2922
sS'URI'
p2923
S'United Rentals Inc'
p2924
sS'AYX'
p2925
S'Alteryx Inc'
p2926
sS'KPTI'
p2927
S'Karyopharm Therapeutics Inc'
p2928
sS'AYR'
p2929
S'Aircastle Ltd'
p2930
sS'HAFC'
p2931
S'Hanmi Financial Corp'
p2932
sS'IPG'
p2933
S'Interpublic Group of Companies Inc'
p2934
sS'NLSN'
p2935
S'Nielsen Holdings PLC'
p2936
sS'ENLC'
p2937
S'EnLink Midstream LLC'
p2938
sS'IPI'
p2939
S'Intrepid Potash Inc'
p2940
sS'REGI'
p2941
S'Renewable Energy Group Inc'
p2942
sS'SFS'
p2943
S'Smart & Final Stores Inc'
p2944
sS'ESGR'
p2945
S'Enstar Group Ltd'
p2946
sS'FOXA'
p2947
S'Twenty-First Century Fox Inc'
p2948
sS'SFM'
p2949
S'Sprouts Farmers Market Inc'
p2950
sS'GDDY'
p2951
S'GoDaddy Inc'
p2952
sS'SAVE'
p2953
S'Spirit Airlines Inc'
p2954
sS'HTBK'
p2955
S'Heritage Commerce Corp'
p2956
sS'HTBI'
p2957
S'Hometrust Bancshares Inc'
p2958
sS'KSU'
p2959
S'Kansas City Southern'
p2960
sS'ATSG'
p2961
S'Air Transport Services Group Inc'
p2962
sS'HDS'
p2963
S'HD Supply Holdings Inc'
p2964
sS'KSS'
p2965
S'Kohls Corp'
p2966
sS'HDP'
p2967
S'Hortonworks Inc'
p2968
sS'RILY'
p2969
S'B. Riley Financial Inc'
p2970
sS'KORS'
p2971
S'Michael Kors Holdings Ltd'
p2972
sS'GATX'
p2973
S'GATX Corp'
p2974
sS'PFGC'
p2975
S'Performance Food Group Co'
p2976
sS'BMI'
p2977
S'Badger Meter Inc'
p2978
sS'BMS'
p2979
S'Bemis Company Inc'
p2980
sS'DENN'
p2981
S"Denny's Corp"
p2982
sS'ONVO'
p2983
S'Organovo Holdings Inc'
p2984
sS'IIIN'
p2985
S'Insteel Industries Inc'
p2986
sS'BMY'
p2987
S'Bristol-Myers Squibb Co'
p2988
sS'EL'
p2989
S'Estee Lauder Companies Inc'
p2990
sS'SHW'
p2991
S'Sherwin-Williams Co'
p2992
sS'EE'
p2993
S'El Paso Electric Co'
p2994
sS'ED'
p2995
S'Consolidated Edison Inc'
p2996
sS'EA'
p2997
S'Electronic Arts Inc'
p2998
sS'AERI'
p2999
S'Aerie Pharmaceuticals Inc'
p3000
sS'POST'
p3001
S'Post Holdings Inc'
p3002
sS'EV'
p3003
S'Eaton Vance Corp'
p3004
sS'ES'
p3005
S'Eversource Energy'
p3006
sS'SHO'
p3007
S'Sunstone Hotel Investors Inc'
p3008
sS'MGI'
p3009
S'MoneyGram International Inc'
p3010
sS'ESL'
p3011
S'Esterline Technologies Corp'
p3012
sS'TBI'
p3013
S'TrueBlue Inc'
p3014
sS'MGP'
p3015
S'MGM Growth Properties LLC'
p3016
sS'TXRH'
p3017
S'Texas Roadhouse Inc'
p3018
sS'LNT'
p3019
S'Alliant Energy Corp'
p3020
sS'SIVB'
p3021
S'SVB Financial Group'
p3022
sS'ADSW'
p3023
S'Advanced Disposal Services Inc'
p3024
sS'LUV'
p3025
S'Southwest Airlines Co'
p3026
sS'FOLD'
p3027
S'Amicus Therapeutics Inc'
p3028
sS'LUK'
p3029
S'Leucadia National Corp'
p3030
sS'ADSK'
p3031
S'Autodesk Inc'
p3032
sS'LBRDK'
p3033
S'Liberty Broadband Corp'
p3034
sS'WPX'
p3035
S'WPX Energy Inc'
p3036
sS'QTS'
p3037
S'QTS Realty Trust Inc'
p3038
sS'MNR'
p3039
S'Monmouth Real Estate Investment Corp'
p3040
sS'LBRDA'
p3041
S'Liberty Broadband Corp'
p3042
sS'AIMT'
p3043
S'Aimmune Therapeutics Inc'
p3044
sS'JCI'
p3045
S'Johnson Controls International PLC'
p3046
sS'APPN'
p3047
S'Appian Corp'
p3048
sS'APPF'
p3049
S'AppFolio Inc'
p3050
sS'WPG'
p3051
S'Washington Prime Group Inc'
p3052
sS'AIMC'
p3053
S'Altra Industrial Motion Corp'
p3054
sS'WPC'
p3055
S'WP Carey Inc'
p3056
sS'IPHI'
p3057
S'Inphi Corp'
p3058
sS'USFD'
p3059
S'US Foods Holding Corp'
p3060
sS'GTN'
p3061
S'Gray Television Inc'
p3062
sS'GTS'
p3063
S'Triple-S Management Corp'
p3064
sS'GTT'
p3065
S'GTT Communications Inc'
p3066
sS'GTY'
p3067
S'Getty Realty Corp'
p3068
sS'KEM'
p3069
S'KEMET Corp'
p3070
sS'KEG'
p3071
S'Key Energy Services Inc'
p3072
sS'RYAM'
p3073
S'Rayonier Advanced Materials Inc'
p3074
sS'ARNC'
p3075
S'Arconic Inc'
p3076
sS'ARNA'
p3077
S'Arena Pharmaceuticals Inc'
p3078
sS'BHLB'
p3079
S'Berkshire Hills Bancorp Inc'
p3080
sS'GNBC'
p3081
S'Green Bancorp Inc'
p3082
sS'KEY'
p3083
S'KeyCorp'
p3084
sS'KEX'
p3085
S'Kirby Corp'
p3086
sS'ONCE'
p3087
S'Spark Therapeutics Inc'
p3088
sS'HVT'
p3089
S'Haverty Furniture Companies Inc'
p3090
sS'WBT'
p3091
S'Welbilt Inc'
p3092
sS'WBS'
p3093
S'Webster Financial Corp'
p3094
sS'TSLA'
p3095
S'Tesla Inc'
p3096
sS'GNTX'
p3097
S'Gentex Corp'
p3098
sS'WBC'
p3099
S'WABCO Holdings Inc'
p3100
sS'WBA'
p3101
S'Walgreens Boots Alliance Inc'
p3102
sS'NXRT'
p3103
S'NexPoint Residential Trust Inc'
p3104
sS'GTE'
p3105
S'Gran Tierra Energy Inc'
p3106
sS'XL'
p3107
S'XL Group Ltd'
p3108
sS'UVSP'
p3109
S'Univest Corporation of Pennsylvania'
p3110
sS'ARRS'
p3111
S'Arris International PLC'
p3112
sS'RPD'
p3113
S'Rapid7 Inc'
p3114
sS'RPM'
p3115
S'RPM International Inc'
p3116
sS'ARRY'
p3117
S'Array Biopharma Inc'
p3118
sS'AKAO'
p3119
S'Achaogen Inc'
p3120
sS'AKAM'
p3121
S'Akamai Technologies Inc'
p3122
sS'BEAT'
p3123
S'BioTelemetry Inc'
p3124
sS'GLRE'
p3125
S'Greenlight Capital Re Ltd'
p3126
sS'M'
p3127
S"Macy's Inc"
p3128
sS'HXL'
p3129
S'Hexcel Corp'
p3130
sS'ALXN'
p3131
S'Alexion Pharmaceuticals Inc'
p3132
sS'VERI'
p3133
S'Veritone Inc'
p3134
sS'ETSY'
p3135
S'Etsy Inc'
p3136
sS'RBC'
p3137
S'Regal Beloit Corp'
p3138
sS'IPCC'
p3139
S'Infinity Property and Casualty Corp'
p3140
sS'ZGNX'
p3141
S'Zogenix Inc'
p3142
sS'UBNK'
p3143
S'United Financial Bancorp Inc'
p3144
sS'RSPP'
p3145
S'RSP Permian Inc'
p3146
sS'LGIH'
p3147
S'LGI Homes Inc'
p3148
sS'PBCT'
p3149
S"People's United Financial Inc"
p3150
sS'NKTR'
p3151
S'Nektar Therapeutics'
p3152
sS'FIBK'
p3153
S'First Interstate BancSystem Inc'
p3154
sS'UBNT'
p3155
S'Ubiquiti Networks Inc'
p3156
sS'IMMU'
p3157
S'Immunomedics Inc'
p3158
sS'ROLL'
p3159
S'RBC Bearings Inc'
p3160
sS'AXS'
p3161
S'AXIS Capital Holdings Ltd'
p3162
sS'AXP'
p3163
S'American Express Co'
p3164
sS'NFLX'
p3165
S'Netflix Inc'
p3166
sS'CCI'
p3167
S'Crown Castle International Corp'
p3168
sS'AGEN'
p3169
S'Agenus Inc'
p3170
sS'USCR'
p3171
S'US Concrete Inc'
p3172
sS'AXE'
p3173
S'Anixter International Inc'
p3174
sS'WRLD'
p3175
S'World Acceptance Corp'
p3176
sS'AXL'
p3177
S'American Axle & Manufacturing Holdings Inc'
p3178
sS'BA'
p3179
S'Boeing Co'
p3180
sS'IRWD'
p3181
S'Ironwood Pharmaceuticals Inc'
p3182
sS'NYRT'
p3183
S'New York REIT Inc'
p3184
sS'RRGB'
p3185
S'Red Robin Gourmet Burgers Inc'
p3186
sS'ENSG'
p3187
S'Ensign Group Inc'
p3188
sS'SCWX'
p3189
S'SecureWorks Corp'
p3190
sS'HK'
p3191
S'Halcon Resources Corp'
p3192
sS'OFC'
p3193
S'Corporate Office Properties Trust'
p3194
sS'CLNE'
p3195
S'Clean Energy Fuels Corp'
p3196
sS'CLNC'
p3197
S'Colony Northstar Credit Real Estate Inc'
p3198
sS'OFG'
p3199
S'OFG Bancorp'
p3200
sS'EXEL'
p3201
S'Exelixis Inc'
p3202
sS'FITB'
p3203
S'Fifth Third Bancorp'
p3204
sS'IAC'
p3205
S'IAC/InterActiveCorp'
p3206
sS'BGCP'
p3207
S'BGC Partners Inc'
p3208
sS'XBIT'
p3209
S'XBiotech Inc'
p3210
sS'HAWK'
p3211
S'Blackhawk Network Holdings Inc'
p3212
sS'TIVO'
p3213
S'TiVo Corp'
p3214
sS'CAVM'
p3215
S'Cavium Inc'
p3216
sS'PHM'
p3217
S'PulteGroup Inc'
p3218
sS'GMED'
p3219
S'Globus Medical Inc'
p3220
sS'TUSK'
p3221
S'Mammoth Energy Services Inc'
p3222
sS'SHLM'
p3223
S'A Schulman Inc'
p3224
sS'SKT'
p3225
S'Tanger Factory Outlet Centers Inc'
p3226
sS'ESRT'
p3227
S'Empire State Realty Trust Inc'
p3228
sS'CRMT'
p3229
S"America's CAR-MART Inc"
p3230
sS'SKX'
p3231
S'Skechers USA Inc'
p3232
sS'ESRX'
p3233
S'Express Scripts Holding Co'
p3234
sS'VMC'
p3235
S'Vulcan Materials Co'
p3236
sS'CTAS'
p3237
S'Cintas Corp'
p3238
sS'TIER'
p3239
S'TIER REIT Inc'
p3240
sS'TRST'
p3241
S'TrustCo Bank Corp N Y'
p3242
sS'ACGL'
p3243
S'Arch Capital Group Ltd'
p3244
sS'GES'
p3245
S'Guess? Inc'
p3246
sS'MFA'
p3247
S'MFA Financial Inc'
p3248
sS'TCX'
p3249
S'Tucows Inc'
p3250
sS'NWSA'
p3251
S'News Corp'
p3252
sS'NATI'
p3253
S'National Instruments Corp'
p3254
sS'REVG'
p3255
S'REV Group Inc'
p3256
sS'SHLD'
p3257
S'Sears Holdings Corp'
p3258
sS'TCO'
p3259
S'Taubman Centers Inc'
p3260
sS'GEF'
p3261
S'Greif Inc'
p3262
sS'DSW'
p3263
S'DSW Inc'
p3264
sS'TCF'
p3265
S'TCF Financial Corp'
p3266
sS'GEO'
p3267
S'Geo Group Inc'
p3268
sS'GEN'
p3269
S'Genesis Healthcare Inc'
p3270
sS'COTV'
p3271
S'Cotiviti Holdings Inc'
p3272
sS'MHO'
p3273
S'M/I Homes Inc'
p3274
sS'MHK'
p3275
S'Mohawk Industries Inc'
p3276
sS'IBKC'
p3277
S'IBERIABANK Corp'
p3278
sS'DDS'
p3279
S"Dillard's Inc"
p3280
sS'DDR'
p3281
S'DDR Corp'
p3282
sS'SIRI'
p3283
S'Sirius XM Holdings Inc'
p3284
sS'CSGS'
p3285
S'CSG Systems International Inc'
p3286
sS'KAMN'
p3287
S'Kaman Corp'
p3288
sS'COTY'
p3289
S'Coty Inc'
p3290
sS'IBKR'
p3291
S'Interactive Brokers Group Inc'
p3292
sS'DDD'
p3293
S'3D Systems Corp'
p3294
sS'ANF'
p3295
S'Abercrombie & Fitch Co'
p3296
sS'NOVT'
p3297
S'Novanta Inc'
p3298
sS'NVR'
p3299
S'NVR Inc'
p3300
sS'ANH'
p3301
S'Anworth Mortgage Asset Corp'
p3302
sS'UCBI'
p3303
S'United Community Banks Inc'
p3304
sS'MELI'
p3305
S'Mercadolibre Inc'
p3306
sS'CDEV'
p3307
S'Centennial Resource Development Inc'
p3308
sS'SXI'
p3309
S'Standex International Corp'
p3310
sS'MCHP'
p3311
S'Microchip Technology Inc'
p3312
sS'FTD'
p3313
S'FTD Companies Inc'
p3314
sS'TMP'
p3315
S'Tompkins Financial Corp'
p3316
sS'GWB'
p3317
S'Great Western Bancorp Inc'
p3318
sS'GWW'
p3319
S'W W Grainger Inc'
p3320
sS'REXR'
p3321
S'Rexford Industrial Realty Inc'
p3322
sS'GWR'
p3323
S'Genesee & Wyoming Inc'
p3324
sS'WYNN'
p3325
S'Wynn Resorts Ltd'
p3326
sS'TMK'
p3327
S'Torchmark Corp'
p3328
sS'FTK'
p3329
S'Flotek Industries Inc'
p3330
sS'TMO'
p3331
S'Thermo Fisher Scientific Inc'
p3332
sS'APAM'
p3333
S'Artisan Partners Asset Management Inc'
p3334
sS'OMED'
p3335
S'OncoMed Pharmaceuticals Inc'
p3336
sS'NJR'
p3337
S'New Jersey Resources Corp'
p3338
sS'ARMK'
p3339
S'Aramark'
p3340
sS'NSIT'
p3341
S'Insight Enterprises Inc'
p3342
sS'OMER'
p3343
S'Omeros Corp'
p3344
sS'ATRA'
p3345
S'Atara Biotherapeutics Inc'
p3346
sS'ATRC'
p3347
S'AtriCure Inc'
p3348
sS'LYB'
p3349
S'LyondellBasell Industries NV'
p3350
sS'HES'
p3351
S'Hess Corp'
p3352
sS'ATRI'
p3353
S'Atrion Corp'
p3354
sS'YORW'
p3355
S'York Water Co'
p3356
sS'LOCO'
p3357
S'El Pollo Loco Holdings Inc'
p3358
sS'ATRO'
p3359
S'Astronics Corp'
p3360
sS'KRO'
p3361
S'Kronos Worldwide Inc'
p3362
sS'KRC'
p3363
S'Kilroy Realty Corp'
p3364
sS'BCPC'
p3365
S'Balchem Corp'
p3366
sS'KRA'
p3367
S'Kraton Corp'
p3368
sS'HEI'
p3369
S'HEICO Corp'
p3370
sS'TISI'
p3371
S'Team Inc'
p3372
sS'SFBS'
p3373
S'ServisFirst Bancshares Inc'
p3374
sS'WAAS'
p3375
S'AquaVenture Holdings Ltd'
p3376
sS'MLNX'
p3377
S'Mellanox Technologies Ltd'
p3378
sS'MBFI'
p3379
S'MB Financial Inc'
p3380
sS'BNFT'
p3381
S'Benefitfocus Inc'
p3382
sS'MLNT'
p3383
S'Melinta Therapeutics, Inc.'
p3384
sS'CADE'
p3385
S'Cadence Bancorp'
p3386
sS'CBI'
p3387
S'Chicago Bridge & Iron Company NV'
p3388
sS'HYH'
p3389
S'Halyard Health Inc'
p3390
sS'EIX'
p3391
S'Edison International'
p3392
sS'WSM'
p3393
S'Williams-Sonoma Inc'
p3394
sS'WSO'
p3395
S'Watsco Inc'
p3396
sS'RCL'
p3397
S'Royal Caribbean Cruises Ltd'
p3398
sS'WSR'
p3399
S'Whitestone REIT'
p3400
sS'WST'
p3401
S'West Pharmaceutical Services Inc'
p3402
sS'EIG'
p3403
S'Employers Holdings Inc'
p3404
sS'WTFC'
p3405
S'Wintrust Financial Corp'
p3406
sS'ARCH'
p3407
S'Arch Coal Inc'
p3408
sS'PGNX'
p3409
S'Progenics Pharmaceuticals Inc'
p3410
sS'LTXB'
p3411
S'LegacyTexas Financial Group Inc'
p3412
sS'SENEA'
p3413
S'Seneca Foods Corp'
p3414
sS'FRPT'
p3415
S'Freshpet Inc'
p3416
sS'KERX'
p3417
S'Keryx Biopharmaceuticals Inc'
p3418
sS'NTLA'
p3419
S'Intellia Therapeutics Inc'
p3420
sS'PUMP'
p3421
S'ProPetro Holding Corp'
p3422
sS'ROCK'
p3423
S'Gibraltar Industries Inc'
p3424
sS'RWT'
p3425
S'Redwood Trust Inc'
p3426
sS'FAF'
p3427
S'First American Financial Corp'
p3428
sS'PDLI'
p3429
S'PDL BioPharma Inc'
p3430
sS'TERP'
p3431
S'TerraForm Power Inc'
p3432
sS'GOOG'
p3433
S'Alphabet Inc'
p3434
sS'GOOD'
p3435
S'Gladstone Commercial Corp'
p3436
sS'LVS'
p3437
S'Las Vegas Sands Corp'
p3438
sS'CNMD'
p3439
S'Conmed Corp'
p3440
sS'VECO'
p3441
S'Veeco Instruments Inc'
p3442
sS'RMAX'
p3443
S'Re/Max Holdings Inc'
p3444
sS'SFLY'
p3445
S'Shutterfly Inc'
p3446
sS'SPOK'
p3447
S'Spok Holdings Inc'
p3448
sS'OCUL'
p3449
S'Ocular Therapeutix Inc'
p3450
sS'ICPT'
p3451
S'Intercept Pharmaceuticals Inc'
p3452
sS'EGHT'
p3453
S'8x8 Inc'
p3454
sS'ADRO'
p3455
S'Aduro Biotech Inc'
p3456
sS'RPT'
p3457
S'Ramco-Gershenson Properties Trust'
p3458
sS'PINC'
p3459
S'Premier Inc'
p3460
sS'MPAA'
p3461
S'Motorcar Parts of America Inc'
p3462
sS'MIDD'
p3463
S'Middleby Corp'
p3464
sS'VSLR'
p3465
S'Vivint Solar Inc'
p3466
sS'NXEO'
p3467
S'Nexeo Solutions Inc'
p3468
sS'ANIK'
p3469
S'Anika Therapeutics Inc'
p3470
sS'TWLO'
p3471
S'Twilio Inc'
p3472
sS'CCS'
p3473
S'Century Communities Inc'
p3474
sS'AAXN'
p3475
S'Axon Enterprise Inc'
p3476
sS'CCL'
p3477
S'Carnival Corp'
p3478
sS'CCO'
p3479
S'Clear Channel Outdoor Holdings Inc'
p3480
sS'OAS'
p3481
S'Oasis Petroleum Inc'
p3482
sS'CCK'
p3483
S'Crown Holdings Inc'
p3484
sS'BNED'
p3485
S'Barnes & Noble Education Inc'
p3486
sS'CCF'
p3487
S'Chase Corp'
p3488
sS'ANIP'
p3489
S'ANI Pharmaceuticals Inc'
p3490
sS'PII'
p3491
S'Polaris Industries Inc'
p3492
sS'FWONK'
p3493
S'Liberty Media Corp'
p3494
sS'ROKU'
p3495
S'Roku Inc'
p3496
sS'FWONA'
p3497
S'Liberty Media Corp'
p3498
sS'FLIR'
p3499
S'FLIR Systems Inc'
p3500
sS'LBRT'
p3501
S'Liberty Oilfield Services Inc'
p3502
sS'MYL'
p3503
S'Mylan NV'
p3504
sS'AKR'
p3505
S'Acadia Realty Trust'
p3506
sS'GPT'
p3507
S'Gramercy Property Trust'
p3508
sS'PIR'
p3509
S'Pier 1 Imports Inc'
p3510
sS'MYE'
p3511
S'Myers Industries Inc'
p3512
sS'FLIC'
p3513
S'First of Long Island Corp'
p3514
sS'SYKE'
p3515
S'Sykes Enterprises Inc'
p3516
sS'MGEE'
p3517
S'MGE Energy Inc'
p3518
sS'WMS'
p3519
S'Advanced Drainage Systems Inc'
p3520
sS'MRCY'
p3521
S'Mercury Systems Inc'
p3522
sS'BF.B'
p3523
S'Brown-Forman Corp'
p3524
sS'JJSF'
p3525
S'J & J Snack Foods Corp'
p3526
sS'WMK'
p3527
S'Weis Markets Inc'
p3528
sS'WMC'
p3529
S'Western Asset Mortgage Capital Corp'
p3530
sS'WMB'
p3531
S'Williams Companies Inc'
p3532
sS'NXST'
p3533
S'Nexstar Media Group Inc'
p3534
sS'ON'
p3535
S'ON Semiconductor Corp'
p3536
sS'ALEX'
p3537
S'Alexander & Baldwin Inc'
p3538
sS'OI'
p3539
S'Owens-Illinois Inc'
p3540
sS'MGRC'
p3541
S'McGrath RentCorp'
p3542
sS'OC'
p3543
S'Owens Corning'
p3544
sS'FB'
p3545
S'Facebook Inc'
p3546
sS'OA'
p3547
S'Orbital ATK Inc'
p3548
sS'NTRS'
p3549
S'Northern Trust Corp'
p3550
sS'TGTX'
p3551
S'TG Therapeutics Inc'
p3552
sS'UBA'
p3553
S'Urstadt Biddle Properties Inc'
p3554
sS'TWOU'
p3555
S'2U Inc'
p3556
sS'NTRA'
p3557
S'Natera Inc'
p3558
sS'COUP'
p3559
S'Coupa Software Inc'
p3560
sS'INOV'
p3561
S'Inovalon Holdings Inc'
p3562
sS'EBIX'
p3563
S'Ebix Inc'
p3564
sS'CHCO'
p3565
S'City Holding Co'
p3566
sS'REGN'
p3567
S'Regeneron Pharmaceuticals Inc'
p3568
sS'DEI'
p3569
S'Douglas Emmett Inc'
p3570
sS'MWA'
p3571
S'Mueller Water Products Inc'
p3572
sS'CHTR'
p3573
S'Charter Communications Inc'
p3574
sS'SWCH'
p3575
S'Switch Inc'
p3576
sS'DEA'
p3577
S'Easterly Government Properties Inc'
p3578
sS'EBSB'
p3579
S'Meridian Bancorp Inc'
p3580
sS'SERV'
p3581
S'Servicemaster Global Holdings Inc'
p3582
sS'AMH'
p3583
S'American Homes 4 Rent'
p3584
sS'CVLT'
p3585
S'Commvault Systems Inc'
p3586
sS'LILA'
p3587
S'Liberty Latin America Ltd'
p3588
sS'AMN'
p3589
S'AMN Healthcare Services Inc'
p3590
sS'GLT'
p3591
S'P H Glatfelter Co'
p3592
sS'AMC'
p3593
S'AMC Entertainment Holdings Inc'
p3594
sS'AME'
p3595
S'Ametek Inc'
p3596
sS'AMD'
p3597
S'Advanced Micro Devices Inc'
p3598
sS'AMG'
p3599
S'Affiliated Managers Group Inc'
p3600
sS'NWE'
p3601
S'NorthWestern Corp'
p3602
sS'LOPE'
p3603
S'Grand Canyon Education Inc'
p3604
sS'ACIA'
p3605
S'Acacia Communications Inc'
p3606
sS'NWL'
p3607
S'Newell Brands Inc'
p3608
sS'AMP'
p3609
S'Ameriprise Financial Inc'
p3610
sS'NWN'
p3611
S'Northwest Natural Gas Co'
p3612
sS'AMR'
p3613
S'Alta Mesa Resources Inc'
p3614
sS'AMT'
p3615
S'American Tower Corp'
p3616
sS'ODFL'
p3617
S'Old Dominion Freight Line Inc'
p3618
sS'UPL'
p3619
S'Ultra Petroleum Corp'
p3620
sS'UPLD'
p3621
S'Upland Software Inc'
p3622
sS'AGFS'
p3623
S'AgroFresh Solutions Inc'
p3624
sS'CFFN'
p3625
S'Capitol Federal Financial Inc'
p3626
sS'O'
p3627
S'Realty Income Corp'
p3628
sS'SNHY'
p3629
S'Sun Hydraulics Corp'
p3630
sS'WDAY'
p3631
S'Workday Inc'
p3632
sS'UPS'
p3633
S'United Parcel Service Inc'
p3634
sS'CVBF'
p3635
S'CVB Financial Corp'
p3636
sS'IVC'
p3637
S'Invacare Corp'
p3638
sS'ANGO'
p3639
S'AngioDynamics Inc'
p3640
sS'ANGI'
p3641
S'ANGI Homeservices Inc'
p3642
sS'IVR'
p3643
S'Invesco Mortgage Capital Inc'
p3644
sS'HTLD'
p3645
S'Heartland Express Inc'
p3646
sS'HTLF'
p3647
S'Heartland Financial USA Inc'
p3648
sS'IVZ'
p3649
S'Invesco Ltd'
p3650
sS'ACC'
p3651
S'American Campus Communities Inc'
p3652
sS'NEO'
p3653
S'Neogenomics Inc'
p3654
sS'NEM'
p3655
S'Newmont Mining Corp'
p3656
sS'GTES'
p3657
S'Gates Industrial Corporation PLC'
p3658
sS'RGEN'
p3659
S'Repligen Corp'
p3660
sS'NEE'
p3661
S'Nextera Energy Inc'
p3662
sS'ACN'
p3663
S'Accenture PLC'
p3664
sS'ACM'
p3665
S'AECOM'
p3666
sS'ULTA'
p3667
S'Ulta Beauty Inc'
p3668
sS'HFC'
p3669
S'HollyFrontier Corp'
p3670
sS'NEU'
p3671
S'NewMarket Corp'
p3672
sS'NEP'
p3673
S'Nextera Energy Partners LP'
p3674
sS'BKD'
p3675
S'Brookdale Senior Living Inc'
p3676
sS'BKE'
p3677
S'Buckle Inc'
p3678
sS'BKH'
p3679
S'Black Hills Corp'
p3680
sS'WABC'
p3681
S'Westamerica Bancorp'
p3682
sS'BKU'
p3683
S'BankUnited Inc'
p3684
sS'CISN'
p3685
S'Cision Ltd'
p3686
sS'LSCC'
p3687
S'Lattice Semiconductor Corp'
p3688
sS'BKS'
p3689
S'Barnes & Noble Inc'
p3690
sS'GILD'
p3691
S'Gilead Sciences Inc'
p3692
sS'PRTY'
p3693
S'Party City Holdco Inc'
p3694
sS'SJW'
p3695
S'SJW Group'
p3696
sS'ACHN'
p3697
S'Achillion Pharmaceuticals Inc'
p3698
sS'PRTA'
p3699
S'Prothena Corporation PLC'
p3700
sS'SJM'
p3701
S'J M Smucker Co'
p3702
sS'QUAD'
p3703
S'Quad/Graphics Inc'
p3704
sS'TVPT'
p3705
S'Travelport Worldwide Ltd'
p3706
sS'ACHC'
p3707
S'Acadia Healthcare Company Inc'
p3708
sS'MBWM'
p3709
S'Mercantile Bank Corp'
p3710
sS'MEI'
p3711
S'Methode Electronics Inc'
p3712
sS'EBAY'
p3713
S'eBay Inc'
p3714
sS'MET'
p3715
S'MetLife Inc'
p3716
sS'GDI'
p3717
S'Gardner Denver Holdings Inc'
p3718
sS'TFSL'
p3719
S'TFS Financial Corp'
p3720
sS'GOLF'
p3721
S'Acushnet Holdings Corp'
p3722
sS'AEIS'
p3723
S'Advanced Energy Industries Inc'
p3724
sS'DERM'
p3725
S'Dermira Inc'
p3726
sS'KREF'
p3727
S'KKR Real Estate Finance Trust Inc'
p3728
sS'PDCO'
p3729
S'Patterson Companies Inc'
p3730
sS'PDCE'
p3731
S'PDC Energy Inc'
p3732
sS'TXN'
p3733
S'Texas Instruments Inc'
p3734
sS'AFAM'
p3735
S'Almost Family Inc'
p3736
sS'TR'
p3737
S'Tootsie Roll Industries Inc'
p3738
sS'TDOC'
p3739
S'Teladoc Inc'
p3740
sS'QSII'
p3741
S'Quality Systems Inc'
p3742
sS'TG'
p3743
S'Tredegar Corp'
p3744
sS'NMRK'
p3745
S'Newmark Group Inc'
p3746
sS'TXT'
p3747
S'Textron Inc'
p3748
sS'KODK'
p3749
S'Eastman Kodak Co'
p3750
sS'AA'
p3751
S'Alcoa Corp'
p3752
sS'AC'
p3753
S'Associated Capital Group Inc'
p3754
sS'AI'
p3755
S'Arlington Asset Investment Corp'
p3756
sS'GVA'
p3757
S'Granite Construction Inc'
p3758
sS'AL'
p3759
S'Air Lease Corp'
p3760
sS'AN'
p3761
S'AutoNation Inc'
p3762
sS'AR'
p3763
S'Antero Resources Corp'
p3764
sS'HBHC'
p3765
S'Hancock Holding Co'
p3766
sS'TSRO'
p3767
S'TESARO Inc'
p3768
sS'AFSI'
p3769
S'AmTrust Financial Services Inc'
p3770
sS'ISRG'
p3771
S'Intuitive Surgical Inc'
p3772
sS'NKE'
p3773
S'Nike Inc'
p3774
sS'ADM'
p3775
S'Archer Daniels Midland Co'
p3776
sS'HHC'
p3777
S'Howard Hughes Corp'
p3778
sS'BHBK'
p3779
S'Blue Hills Bancorp Inc'
p3780
sS'VSAR'
p3781
S'Versartis Inc'
p3782
sS'CPK'
p3783
S'Chesapeake Utilities Corp'
p3784
sS'VSAT'
p3785
S'ViaSat Inc'
p3786
sS'GLIBA'
p3787
S'GCI Liberty Inc'
p3788
sS'CPB'
p3789
S'Campbell Soup Co'
p3790
sS'CPE'
p3791
S'Callon Petroleum Co'
p3792
sS'CPF'
p3793
S'Central Pacific Financial Corp'
p3794
sS'WLH'
p3795
S'William Lyon Homes'
p3796
sS'WLK'
p3797
S'Westlake Chemical Corp'
p3798
sS'WLL'
p3799
S'Whiting Petroleum Corp'
p3800
sS'SBAC'
p3801
S'SBA Communications Corp'
p3802
sS'CAFD'
p3803
S'8Point3 Energy Partners LP'
p3804
sS'ROG'
p3805
S'Rogers Corp'
p3806
sS'CPT'
p3807
S'Camden Property Trust'
p3808
sS'EFSC'
p3809
S'Enterprise Financial Services Corp'
p3810
sS'HEES'
p3811
S'H&E Equipment Services Inc'
p3812
sS'TWNK'
p3813
S'Hostess Brands Inc'
p3814
sS'MANT'
p3815
S'ManTech International Corp'
p3816
sS'ALDR'
p3817
S'Alder Biopharmaceuticals Inc'
p3818
sS'UAL'
p3819
S'United Continental Holdings Inc'
p3820
sS'HIFR'
p3821
S'InfraREIT Inc'
p3822
sS'MANH'
p3823
S'Manhattan Associates Inc'
p3824
sS'VOYA'
p3825
S'Voya Financial Inc'
p3826
sS'WRD'
p3827
S'Wildhorse Resource Development Corp'
p3828
sS'WRE'
p3829
S'Washington Real Estate Investment Trust'
p3830
sS'WRB'
p3831
S'W. R. Berkley Corp'
p3832
sS'HZO'
p3833
S'MarineMax Inc'
p3834
sS'APRN'
p3835
S'Blue Apron Holdings Inc'
p3836
sS'WRK'
p3837
S'WestRock Co'
p3838
sS'WRI'
p3839
S'Weingarten Realty Investors'
p3840
sS'P'
p3841
S'Pandora Media Inc'
p3842
sS'BECN'
p3843
S'Beacon Roofing Supply Inc'
p3844
sS'EHC'
p3845
S'Encompass Health Corp'
p3846
sS'DORM'
p3847
S'Dorman Products Inc'
p3848
sS'GLPI'
p3849
S'Gaming and Leisure Properties Inc'
p3850
sS'FRPH'
p3851
S'FRP Holdings Inc'
p3852
sS'OTIC'
p3853
S'Otonomy Inc'
p3854
sS'CVCO'
p3855
S'Cavco Industries Inc'
p3856
sS'LAD'
p3857
S'Lithia Motors Inc'
p3858
sS'FOXF'
p3859
S'Fox Factory Holding Corp'
p3860
sS'SMHI'
p3861
S'SEACOR Marine Holdings Inc'
p3862
sS'LAZ'
p3863
S'Lazard Ltd'
p3864
sS'FFG'
p3865
S'FBL Financial Group Inc'
p3866
sS'CMPR'
p3867
S'Cimpress NV'
p3868
sS'CSWI'
p3869
S'CSW Industrials Inc'
p3870
sS'SEAS'
p3871
S'SeaWorld Entertainment Inc'
p3872
sS'TRK'
p3873
S'Speedway Motorsports Inc'
p3874
sS'DTE'
p3875
S'DTE Energy Co'
p3876
sS'WMGI'
p3877
S'Wright Medical Group NV'
p3878
sS'AAWW'
p3879
S'Atlas Air Worldwide Holdings Inc'
p3880
sS'DCOM'
p3881
S'Dime Community Bancshares Inc'
p3882
sS'DVAX'
p3883
S'Dynavax Technologies Corp'
p3884
sS'PVAC'
p3885
S'Penn Virginia Corp'
p3886
sS'NBTB'
p3887
S'NBT Bancorp Inc'
p3888
sS'FTR'
p3889
S'Frontier Communications Corp'
p3890
sS'JNPR'
p3891
S'Juniper Networks Inc'
p3892
sS'FTV'
p3893
S'Fortive Corp'
p3894
sS'STBA'
p3895
S'S&T Bancorp Inc'
p3896
sS'TEGP'
p3897
S'Tallgrass Energy GP LP'
p3898
sS'STBZ'
p3899
S'State Bank Financial Corp'
p3900
sS'KNSL'
p3901
S'Kinsale Capital Group Inc'
p3902
sS'FIVE'
p3903
S'Five Below Inc'
p3904
sS'IMAX'
p3905
S'Imax Corp'
p3906
sS'LHCG'
p3907
S'LHC Group Inc'
p3908
sS'FTI'
p3909
S'TechnipFMC PLC'
p3910
sS'JW.A'
p3911
S'John Wiley & Sons Inc'
p3912
sS'FIVN'
p3913
S'Five9 Inc'
p3914
sS'CBB'
p3915
S'Cincinnati Bell Inc'
p3916
sS'SBSI'
p3917
S'Southside Bancshares Inc'
p3918
sS'PJC'
p3919
S'Piper Jaffray Companies'
p3920
sS'CBM'
p3921
S'Cambrex Corp'
p3922
sS'CBS'
p3923
S'CBS Corp'
p3924
sS'MXL'
p3925
S'MaxLinear Inc'
p3926
sS'CBT'
p3927
S'Cabot Corp'
p3928
sS'CBU'
p3929
S'Community Bank System Inc'
p3930
sS'CBZ'
p3931
S'CBIZ Inc'
p3932
sS'PJT'
p3933
S'PJT Partners Inc'
p3934
sS'BMCH'
p3935
S'BMC Stock Holdings Inc'
p3936
sS'NUAN'
p3937
S'Nuance Communications Inc'
p3938
sS'FR'
p3939
S'First Industrial Realty Trust Inc'
p3940
sS'ASIX'
p3941
S'AdvanSix Inc'
p3942
sS'CROX'
p3943
S'Crocs Inc'
p3944
sS'ACIW'
p3945
S'ACI Worldwide Inc'
p3946
sS'HAIN'
p3947
S'Hain Celestial Group Inc'
p3948
sS'MSFG'
p3949
S'MainSource Financial Group Inc'
p3950
sS'SMP'
p3951
S'Standard Motor Products Inc'
p3952
sS'0RPW'
p3953
S'Janus Henderson Group PLC'
p3954
sS'TTMI'
p3955
S'TTM Technologies Inc'
p3956
sS'FE'
p3957
S'FirstEnergy Corp'
p3958
sS'FF'
p3959
S'FutureFuel Corp'
p3960
sS'FG'
p3961
S'FGL Holdings'
p3962
sS'SMG'
p3963
S'Scotts Miracle-Gro Co'
p3964
sS'FI'
p3965
S'Franks International NV'
p3966
sS'FL'
p3967
S'Foot Locker Inc'
p3968
sS'HOMB'
p3969
S'Home BancShares Inc'
p3970
sS'BAS'
p3971
S'Basic Energy Services Inc'
p3972
sS'GGP'
p3973
S'GGP Inc'
p3974
sS'MDB'
p3975
S'MongoDB Inc'
p3976
sS'MDC'
p3977
S'MDC Holdings Inc'
p3978
sS'NGHC'
p3979
S'National General Holdings Corp'
p3980
sS'GGG'
p3981
S'Graco Inc'
p3982
sS'PZN'
p3983
S'Pzena Investment Management Inc'
p3984
sS'BBBY'
p3985
S'Bed Bath & Beyond Inc'
p3986
sS'MDR'
p3987
S'McDermott International Inc'
p3988
sS'RPXC'
p3989
S'RPX Corp'
p3990
sS'MDP'
p3991
S'Meredith Corp'
p3992
sS'MDT'
p3993
S'Medtronic PLC'
p3994
sS'MDU'
p3995
S'MDU Resources Group Inc'
p3996
sS'RUBI'
p3997
S'Rubicon Project Inc'
p3998
sS'SITE'
p3999
S'SiteOne Landscape Supply Inc'
p4000
sS'DFS'
p4001
S'Discover Financial Services'
p4002
sS'JEC'
p4003
S'Jacobs Engineering Group Inc'
p4004
sS'ILMN'
p4005
S'Illumina Inc'
p4006
sS'MNRO'
p4007
S'Monro Inc'
p4008
sS'MYOK'
p4009
S'MyoKardia Inc'
p4010
sS'ALL'
p4011
S'Allstate Corp'
p4012
sS'ALK'
p4013
S'Alaska Air Group Inc'
p4014
sS'XHR'
p4015
S'Xenia Hotels & Resorts Inc'
p4016
sS'PAGP'
p4017
S'Plains GP Holdings LP'
p4018
sS'ALG'
p4019
S'Alamo Group Inc'
p4020
sS'ALE'
p4021
S'ALLETE Inc'
p4022
sS'ALB'
p4023
S'Albemarle Corp'
p4024
sS'UEPS'
p4025
S'Net 1 UEPS Technologies Inc'
p4026
sS'ALX'
p4027
S"Alexander's Inc"
p4028
sS'ALV'
p4029
S'Autoliv Inc'
p4030
sS'WMIH'
p4031
S'WMIH Corp'
p4032
sS'ADBE'
p4033
S'Adobe Systems Inc'
p4034
sS'DECK'
p4035
S'Deckers Outdoor Corp'
p4036
sS'MERC'
p4037
S'Mercer International Inc'
p4038
sS'MITT'
p4039
S'AG Mortgage Investment Trust Inc'
p4040
sS'MDXG'
p4041
S'MiMedx Group Inc'
p4042
sS'MITL'
p4043
S'Mitel Networks Corp'
p4044
sS'TOL'
p4045
S'Toll Brothers Inc'
p4046
sS'FRAC'
p4047
S'Keane Group Inc'
p4048
sS'EPZM'
p4049
S'Epizyme Inc'
p4050
sS'NHC'
p4051
S'National Healthcare Corp'
p4052
sS'HIW'
p4053
S'Highwoods Properties Inc'
p4054
sS'NHI'
p4055
S'National Health Investors Inc'
p4056
sS'KFY'
p4057
S'Korn/Ferry International'
p4058
sS'SIGI'
p4059
S'Selective Insurance Group Inc'
p4060
sS'HIG'
p4061
S'Hartford Financial Services Group Inc'
p4062
sS'HII'
p4063
S'Huntington Ingalls Industries Inc'
p4064
sS'VLGEA'
p4065
S'Village Super Market Inc'
p4066
sS'ABC'
p4067
S'AmerisourceBergen Corp'
p4068
sS'FTNT'
p4069
S'Fortinet Inc'
p4070
sS'BANR'
p4071
S'Banner Corp'
p4072
sS'HGV'
p4073
S'Hilton Grand Vacations Inc'
p4074
sS'ABM'
p4075
S'ABM Industries Inc'
p4076
sS'XOG'
p4077
S'Extraction Oil & Gas Inc'
p4078
sS'ABR'
p4079
S'Arbor Realty Trust Inc'
p4080
sS'BANF'
p4081
S'BancFirst Corp'
p4082
sS'ABT'
p4083
S'Abbott Laboratories'
p4084
sS'BANC'
p4085
S'Banc of California Inc'
p4086
sS'XON'
p4087
S'Intrexon Corp'
p4088
sS'SCVL'
p4089
S'Shoe Carnival Inc'
p4090
sS'XOM'
p4091
S'Exxon Mobil Corp'
p4092
sS'OTTR'
p4093
S'Otter Tail Corp'
p4094
sS'BHE'
p4095
S'Benchmark Electronics Inc'
p4096
sS'CRAY'
p4097
S'Cray Inc'
p4098
sS'BHF'
p4099
S'Brighthouse Financial Inc'
p4100
sS'TRGP'
p4101
S'Targa Resources Corp'
p4102
sS'MRT'
p4103
S'Medequities Realty Trust Inc'
p4104
sS'CLNS'
p4105
S'Colony NorthStar Inc'
p4106
sS'GOOGL'
p4107
S'Alphabet Inc'
p4108
sS'ATNI'
p4109
S'ATN International Inc'
p4110
sS'ARAY'
p4111
S'Accuray Inc'
p4112
sS'EGN'
p4113
S'Energen Corp'
p4114
sS'EGL'
p4115
S'Engility Holdings Inc'
p4116
sS'CABO'
p4117
S'Cable ONE Inc'
p4118
sS'RAD'
p4119
S'Rite Aid Corp'
p4120
sS'IMPV'
p4121
S'Imperva Inc'
p4122
sS'LBY'
p4123
S'Libbey Inc'
p4124
sS'EXTN'
p4125
S'Exterran Corp'
p4126
sS'FOGO'
p4127
S'Fogo De Chao Inc'
p4128
sS'SPSC'
p4129
S'SPS Commerce Inc'
p4130
sS'LSXMK'
p4131
S'Liberty Media Corp'
p4132
sS'EYE'
p4133
S'National Vision Holdings Inc'
p4134
sS'EVRI'
p4135
S'Everi Holdings Inc'
p4136
sS'LPX'
p4137
S'Louisiana-Pacific Corp'
p4138
sS'FFWM'
p4139
S'First Foundation Inc'
p4140
sS'LPT'
p4141
S'Liberty Property Trust'
p4142
sS'RVNC'
p4143
S'Revance Therapeutics Inc'
p4144
sS'BFS'
p4145
S'Saul Centers Inc'
p4146
sS'CRSP'
p4147
S'CRISPR Therapeutics AG'
p4148
sS'PHH'
p4149
S'PHH Corp'
p4150
sS'LPI'
p4151
S'Laredo Petroleum Inc'
p4152
sS'LADR'
p4153
S'Ladder Capital Corp'
p4154
sS'SFNC'
p4155
S'Simmons First National Corp'
p4156
sS'SBNY'
p4157
S'Signature Bank'
p4158
sS'MDCA'
p4159
S'MDC Partners Inc'
p4160
sS'OZRK'
p4161
S'Bank of the Ozarks'
p4162
sS'BATRA'
p4163
S'Liberty Media Corp'
p4164
sS'WETF'
p4165
S'WisdomTree Investments Inc'
p4166
sS'AVYA'
p4167
S'Avaya Holdings Corp'
p4168
sS'ROST'
p4169
S'Ross Stores Inc'
p4170
sS'DPLO'
p4171
S'Diplomat Pharmacy Inc'
p4172
sS'STAR'
p4173
S'iStar Inc'
p4174
sS'OCN'
p4175
S'Ocwen Financial Corp'
p4176
sS'NYCB'
p4177
S'New York Community Bancorp Inc'
p4178
sS'SLGN'
p4179
S'Silgan Holdings Inc'
p4180
sS'STAY'
p4181
S'Extended Stay America Inc'
p4182
sS'STAG'
p4183
S'STAG Industrial Inc'
p4184
sS'IFF'
p4185
S'International Flavors & Fragrances Inc'
p4186
sS'NVDA'
p4187
S'NVIDIA Corp'
p4188
sS'STAA'
p4189
S'STAAR Surgical Co'
p4190
sS'FUL'
p4191
S'HB Fuller Co'
p4192
sS'CHSP'
p4193
S'Chesapeake Lodging Trust'
p4194
sS'ABG'
p4195
S'Asbury Automotive Group Inc'
p4196
sS'FLOW'
p4197
S'SPX FLOW Inc'
p4198
sS'ASMB'
p4199
S'Assembly Biosciences Inc'
p4200
sS'PKG'
p4201
S'Packaging Corp of America'
p4202
sS'PKD'
p4203
S'Parker Drilling Co'
p4204
sS'PKE'
p4205
S'Park Electrochemical Corp'
p4206
sS'PKI'
p4207
S'PerkinElmer Inc'
p4208
sS'SYMC'
p4209
S'Symantec Corp'
p4210
sS'IBTX'
p4211
S'Independent Bank Group Inc'
p4212
sS'WOW'
p4213
S'WideOpenWest Inc'
p4214
sS'WOR'
p4215
S'Worthington Industries Inc'
p4216
sS'CSX'
p4217
S'CSX Corp'
p4218
sS'CSU'
p4219
S'Capital Senior Living Corp'
p4220
sS'CSV'
p4221
S'Carriage Services Inc'
p4222
sS'XOXO'
p4223
S'XO Group Inc'
p4224
sS'ALGT'
p4225
S'Allegiant Travel Co'
p4226
sS'ALGN'
p4227
S'Align Technology Inc'
p4228
sS'WGO'
p4229
S'Winnebago Industries Inc'
p4230
sS'ARWR'
p4231
S'Arrowhead Pharmaceuticals Inc'
p4232
sS'ACXM'
p4233
S'Acxiom Corp'
p4234
sS'JBT'
p4235
S'John Bean Technologies Corp'
p4236
sS'MUR'
p4237
S'Murphy Oil Corp'
p4238
sS'AES'
p4239
S'AES Corp'
p4240
sS'XLRN'
p4241
S'Acceleron Pharma Inc'
p4242
sS'NWBI'
p4243
S'Northwest Bancshares Inc'
p4244
sS'HIBB'
p4245
S'Hibbett Sports Inc'
p4246
sS'JBL'
p4247
S'Jabil Inc'
p4248
sS'MCRN'
p4249
S'Milacron Holdings Corp'
p4250
sS'CMCO'
p4251
S'Columbus McKinnon Corp'
p4252
sS'CSBK'
p4253
S'Clifton Bancorp Inc'
p4254
sS'NUS'
p4255
S'NU Skin Enterprises Inc'
p4256
sS'MASI'
p4257
S'Masimo Corp'
p4258
sS'ASB'
p4259
S'Associated Banc-Corp'
p4260
sS'SNDR'
p4261
S'Schneider National Inc'
p4262
sS'DGX'
p4263
S'Quest Diagnostics Inc'
p4264
sS'ASH'
p4265
S'Ashland Global Holdings Inc'
p4266
sS'UNP'
p4267
S'Union Pacific Corp'
p4268
sS'DUK'
p4269
S'Duke Energy Corp'
p4270
sS'UNT'
p4271
S'Unit Corp'
p4272
sS'QCRH'
p4273
S'QCR Holdings Inc'
p4274
sS'NP'
p4275
S'Neenah Inc'
p4276
sS'R'
p4277
S'Ryder System Inc'
p4278
sS'MTOR'
p4279
S'Meritor Inc'
p4280
sS'UNF'
p4281
S'UniFirst Corp'
p4282
sS'UNH'
p4283
S'UnitedHealth Group Inc'
p4284
sS'UNM'
p4285
S'Unum Group'
p4286
sS'GBCI'
p4287
S'Glacier Bancorp Inc'
p4288
sS'BLUE'
p4289
S'bluebird bio Inc'
p4290
sS'OMF'
p4291
S'Onemain Holdings Inc'
p4292
sS'KE'
p4293
S'Kimball Electronics Inc'
p4294
sS'ITG'
p4295
S'Investment Technology Group Inc'
p4296
sS'OMI'
p4297
S'Owens & Minor Inc'
p4298
sS'KO'
p4299
S'Coca-Cola Co'
p4300
sS'KN'
p4301
S'Knowles Corp'
p4302
sS'VIVO'
p4303
S'Meridian Bioscience Inc'
p4304
sS'KS'
p4305
S'KapStone Paper and Packaging Corp'
p4306
sS'KR'
p4307
S'Kroger Co'
p4308
sS'KW'
p4309
S'Kennedy-Wilson Holdings Inc'
p4310
sS'VSTO'
p4311
S'Vista Outdoor Inc'
p4312
sS'ANET'
p4313
S'Arista Networks Inc'
p4314
sS'ITW'
p4315
S'Illinois Tool Works Inc'
p4316
sS'ITT'
p4317
S'ITT Inc'
p4318
sS'KLAC'
p4319
S'KLA-Tencor Corp'
p4320
sS'GPOR'
p4321
S'Gulfport Energy Corp'
p4322
sS'AAC'
p4323
S'AAC Holdings Inc'
p4324
sS'ISBC'
p4325
S'Investors Bancorp Inc'
p4326
sS'AAN'
p4327
S"Aaron's Inc"
p4328
sS'AAT'
p4329
S'American Assets Trust Inc'
p4330
sS'CVEO'
p4331
S'Civeo Corp'
p4332
sS'AAP'
p4333
S'Advance Auto Parts Inc'
p4334
sS'HSTM'
p4335
S'HealthStream Inc'
p4336
sS'PATK'
p4337
S'Patrick Industries Inc'
p4338
sS'AKCA'
p4339
S'Akcea Therapeutics Inc'
p4340
sS'BIO'
p4341
S'Bio Rad Laboratories Inc'
p4342
sS'CYTK'
p4343
S'Cytokinetics Inc'
p4344
sS'PTLA'
p4345
S'Portola Pharmaceuticals Inc'
p4346
sS'BIG'
p4347
S'Big Lots Inc'
p4348
sS'BID'
p4349
S"Sotheby's"
p4350
sS'JBGS'
p4351
S'JBG SMITH Properties'
p4352
sS'MGPI'
p4353
S'MGP Ingredients Inc'
p4354
sS'KWR'
p4355
S'Quaker Chemical Corp'
p4356
sS'AEO'
p4357
S'American Eagle Outfitters Inc'
p4358
sS'LAUR'
p4359
S'Laureate Education Inc'
p4360
sS'SANM'
p4361
S'Sanmina Corp'
p4362
sS'HOME'
p4363
S'At Home Group Inc'
p4364
sS'BUFF'
p4365
S'Blue Buffalo Pet Products Inc'
p4366
sS'HOLX'
p4367
S'Hologic Inc'
p4368
sS'SLM'
p4369
S'SLM Corp'
p4370
sS'SLD'
p4371
S'Sutherland Asset Management Corp'
p4372
sS'MSGN'
p4373
S'MSG Networks Inc'
p4374
sS'TRVN'
p4375
S'Trevena Inc'
p4376
sS'MCO'
p4377
S"Moody's Corp"
p4378
sS'JPM'
p4379
S'JPMorgan Chase & Co'
p4380
sS'MCD'
p4381
S"McDonald's Corp"
p4382
sS'USPH'
p4383
S'U.S. Physical Therapy Inc'
p4384
sS'PKOH'
p4385
S'Park Ohio Holdings Corp'
p4386
sS'GFF'
p4387
S'Griffon Corp'
p4388
sS'SFIX'
p4389
S'Stitch Fix Inc'
p4390
sS'BGC'
p4391
S'General Cable Corp'
p4392
sS'BCOR'
p4393
S'Blucora Inc'
p4394
sS'BGG'
p4395
S'Briggs & Stratton Corp'
p4396
sS'MUSA'
p4397
S'Murphy Usa Inc'
p4398
sS'RMBS'
p4399
S'Rambus Inc'
p4400
sS'CNNE'
p4401
S'Cannae Holdings Inc'
p4402
sS'BGS'
p4403
S'B&G Foods Inc'
p4404
sS'EXR'
p4405
S'Extra Space Storage Inc'
p4406
sS'EXP'
p4407
S'Eagle Materials Inc'
p4408
sS'IOSP'
p4409
S'Innospec Inc'
p4410
sS'PQG'
p4411
S'PQ Group Holdings Inc'
p4412
sS'AVXS'
p4413
S'AveXis Inc'
p4414
sS'VNDA'
p4415
S'Vanda Pharmaceuticals Inc'
p4416
sS'VNO'
p4417
S'Vornado Realty Trust'
p4418
sS'DEPO'
p4419
S'Depomed Inc'
p4420
sS'PICO'
p4421
S'Pico Holdings Inc'
p4422
sS'MYRG'
p4423
S'MYR Group Inc'
p4424
sS'DLPH'
p4425
S'Delphi Technologies PLC'
p4426
sS'FBHS'
p4427
S'Fortune Brands Home & Security Inc'
p4428
sS'SONA'
p4429
S'Southern National Bancorp of Virginia Inc'
p4430
sS'GPN'
p4431
S'Global Payments Inc'
p4432
sS'DSKE'
p4433
S'Daseke Inc'
p4434
sS'GPI'
p4435
S'Group 1 Automotive Inc'
p4436
sS'GPK'
p4437
S'Graphic Packaging Holding Co'
p4438
sS'THS'
p4439
S'TreeHouse Foods Inc'
p4440
sS'THR'
p4441
S'Thermon Group Holdings Inc'
p4442
sS'GPC'
p4443
S'Genuine Parts Co'
p4444
sS'THO'
p4445
S'Thor Industries Inc'
p4446
sS'TILE'
p4447
S'Interface Inc'
p4448
sS'GPX'
p4449
S'GP Strategies Corp'
p4450
sS'TMHC'
p4451
S'Taylor Morrison Home Corp'
p4452
sS'THG'
p4453
S'Hanover Insurance Group Inc'
p4454
sS'XLNX'
p4455
S'Xilinx Inc'
p4456
sS'THC'
p4457
S'Tenet Healthcare Corp'
p4458
sS'ADMS'
p4459
S'Adamas Pharmaceuticals Inc'
p4460
sS'EPAY'
p4461
S'Bottomline Technologies (DE) Inc'
p4462
sS'AEGN'
p4463
S'Aegion Corp'
p4464
sS'KMPR'
p4465
S'Kemper Corp'
p4466
sS'KIM'
p4467
S'Kimco Realty Corp'
p4468
sS'CRR'
p4469
S'CARBO Ceramics Inc'
p4470
sS'CRS'
p4471
S'Carpenter Technology Corp'
p4472
sS'FDC'
p4473
S'First Data Corp'
p4474
sS'SYNH'
p4475
S'Syneos Health Inc'
p4476
sS'CRY'
p4477
S'CryoLife Inc'
p4478
sS'EGRX'
p4479
S'Eagle Pharmaceuticals Inc'
p4480
sS'SYNA'
p4481
S'Synaptics Inc'
p4482
sS'FDP'
p4483
S'Fresh Del Monte Produce Inc'
p4484
sS'FDS'
p4485
S'FactSet Research Systems Inc'
p4486
sS'SBCF'
p4487
S'Seacoast Banking Corporation of Florida'
p4488
sS'LEN'
p4489
S'Lennar Corp'
p4490
sS'FDX'
p4491
S'FedEx Corp'
p4492
sS'SYNT'
p4493
S'Syntel Inc'
p4494
sS'CRI'
p4495
S"Carter's Inc"
p4496
sS'CRL'
p4497
S'Charles River Laboratories International Inc'
p4498
sS'CRM'
p4499
S'Salesforce.com Inc'
p4500
sS'PNFP'
p4501
S'Pinnacle Financial Partners Inc'
p4502
sS'WNC'
p4503
S'Wabash National Corp'
p4504
sS'FANG'
p4505
S'Diamondback Energy Inc'
p4506
sS'PGEM'
p4507
S'Ply Gem Holdings Inc'
p4508
sS'ABMD'
p4509
S'Abiomed Inc'
p4510
sS'PLUS'
p4511
S'ePlus inc'
p4512
sS'PB'
p4513
S'Prosperity Bancshares Inc'
p4514
sS'PF'
p4515
S'Pinnacle Foods Inc'
p4516
sS'PG'
p4517
S'Procter & Gamble Co'
p4518
sS'PE'
p4519
S'Parsley Energy Inc'
p4520
sS'PK'
p4521
S'Park Hotels & Resorts Inc'
p4522
sS'PH'
p4523
S'Parker-Hannifin Corp'
p4524
sS'PI'
p4525
S'Impinj Inc'
p4526
sS'PM'
p4527
S'Philip Morris International Inc'
p4528
sS'EFX'
p4529
S'Equifax Inc'
p4530
sS'CHGG'
p4531
S'Chegg Inc'
p4532
sS'MKSI'
p4533
S'MKS Instruments Inc'
p4534
sS'APTI'
p4535
S'Apptio Inc'
p4536
sS'FTSI'
p4537
S'FTS International Inc'
p4538
sS'APTS'
p4539
S'Preferred Apartment Communities Inc'
p4540
sS'S'
p4541
S'Sprint Corp'
p4542
sS'QCOM'
p4543
S'Qualcomm Inc'
p4544
sS'APTV'
p4545
S'Aptiv PLC'
p4546
sS'RP'
p4547
S'RealPage Inc'
p4548
sS'CSGP'
p4549
S'CoStar Group Inc'
p4550
sS'UNIT'
p4551
S'Uniti Group Inc'
p4552
sS'RMTI'
p4553
S'Rockwell Medical Inc'
p4554
sS'IPGP'
p4555
S'IPG Photonics Corp'
p4556
sS'RS'
p4557
S'Reliance Steel & Aluminum Co'
p4558
sS'RNG'
p4559
S'RingCentral Inc'
p4560
sS'CNXN'
p4561
S'PC Connection Inc'
p4562
sS'OPB'
p4563
S'Opus Bank'
p4564
sS'RNR'
p4565
S'Renaissancere Holdings Ltd'
p4566
sS'STRA'
p4567
S'Strayer Education Inc'
p4568
sS'NTCT'
p4569
S'Netscout Systems Inc'
p4570
sS'ALTR'
p4571
S'Altair Engineering Inc'
p4572
sS'OPK'
p4573
S'OPKO Health Inc'
p4574
sS'CMTL'
p4575
S'Comtech Telecommunications Corp'
p4576
sS'DVN'
p4577
S'Devon Energy Corp'
p4578
sS'PEGI'
p4579
S'Pattern Energy Group Inc'
p4580
sS'ABCB'
p4581
S'Ameris Bancorp'
p4582
sS'LFIN'
p4583
S'LongFin Corp'
p4584
sS'WDFC'
p4585
S'WD-40 Co'
p4586
sS'DVA'
p4587
S'DaVita Inc'
p4588
sS'PEGA'
p4589
S'Pegasystems Inc'
p4590
sS'JELD'
p4591
S'JELD-WEN Holding Inc'
p4592
sS'UMH'
p4593
S'UMH Properties Inc'
p4594
sS'GDOT'
p4595
S'Green Dot Corp'
p4596
sS'ANDE'
p4597
S'Andersons Inc'
p4598
sS'NEWM'
p4599
S'New Media Investment Group Inc'
p4600
sS'OLN'
p4601
S'Olin Corp'
p4602
sS'SCSC'
p4603
S'ScanSource Inc'
p4604
sS'HALO'
p4605
S'Halozyme Therapeutics Inc'
p4606
sS'ELGX'
p4607
S'Endologix Inc'
p4608
sS'JKHY'
p4609
S'Jack Henry & Associates Inc'
p4610
sS'ANDV'
p4611
S'Andeavor'
p4612
sS'HAYN'
p4613
S'Haynes International Inc'
p4614
sS'IEX'
p4615
S'IDEX Corp'
p4616
sS'OCLR'
p4617
S'Oclaro Inc'
p4618
sS'IMGN'
p4619
S'ImmunoGen Inc'
p4620
sS'IRET'
p4621
S'Investors Real Estate Trust'
p4622
sS'FRED'
p4623
S"Fred's Inc"
p4624
sS'NVEE'
p4625
S'NV5 Global Inc'
p4626
sS'RARX'
p4627
S'Ra Pharmaceuticals Inc'
p4628
sS'BLDR'
p4629
S'Builders FirstSource Inc'
p4630
sS'EXAS'
p4631
S'Exact Sciences Corp'
p4632
sS'HCKT'
p4633
S'Hackett Group Inc'
p4634
sS'SMTC'
p4635
S'Semtech Corp'
p4636
sS'CHRW'
p4637
S'C.H. Robinson Worldwide Inc'
p4638
sS'CDE'
p4639
S'Coeur Mining Inc'
p4640
sS'PLT'
p4641
S'Plantronics Inc'
p4642
sS'CHRS'
p4643
S'Coherus BioSciences Inc'
p4644
sS'CCRN'
p4645
S'Cross Country Healthcare Inc'
p4646
sS'CDK'
p4647
S'CDK Global Inc'
p4648
sS'SBUX'
p4649
S'Starbucks Corp'
p4650
sS'MOS'
p4651
S'Mosaic Co'
p4652
sS'CDW'
p4653
S'CDW Corp'
p4654
sS'MORN'
p4655
S'Morningstar Inc'
p4656
sS'RBCAA'
p4657
S'Republic Bancorp Inc'
p4658
sS'IT'
p4659
S'Gartner Inc'
p4660
sS'UFPI'
p4661
S'Universal Forest Products Inc'
p4662
sS'CMCSA'
p4663
S'Comcast Corp'
p4664
sS'ASNA'
p4665
S'Ascena Retail Group Inc'
p4666
sS'MNTA'
p4667
S'Momenta Pharmaceuticals Inc'
p4668
sS'BXP'
p4669
S'Boston Properties Inc'
p4670
sS'BXS'
p4671
S'BancorpSouth Bank'
p4672
sS'VRAY'
p4673
S'ViewRay Inc'
p4674
sS'WASH'
p4675
S'Washington Trust Bancorp Inc'
p4676
sS'CTMX'
p4677
S'CytomX Therapeutics Inc'
p4678
sS'TLGT'
p4679
S'Teligent Inc'
p4680
sS'PRSC'
p4681
S'Providence Service Corp'
p4682
sS'DVMT'
p4683
S'Dell Technologies Inc'
p4684
sS'PTCT'
p4685
S'PTC Therapeutics Inc'
p4686
sS'PPC'
p4687
S'Pilgrims Pride Corp'
p4688
sS'NGVT'
p4689
S'Ingevity Corp'
p4690
sS'PPG'
p4691
S'PPG Industries Inc'
p4692
sS'MBI'
p4693
S'MBIA Inc'
p4694
sS'PSX'
p4695
S'Phillips 66'
p4696
sS'SON'
p4697
S'Sonoco Products Co'
p4698
sS'DNOW'
p4699
S'NOW Inc'
p4700
sS'NGVC'
p4701
S'Natural Grocers By Vitamin Cottage Inc'
p4702
sS'AMBA'
p4703
S'Ambarella Inc'
p4704
sS'AMBC'
p4705
S'Ambac Financial Group Inc'
p4706
sS'MTZ'
p4707
S'MasTec Inc'
p4708
sS'MTX'
p4709
S'Minerals Technologies Inc'
p4710
sS'JCP'
p4711
S'J C Penney Company Inc'
p4712
sS'GRPN'
p4713
S'Groupon Inc'
p4714
sS'IBOC'
p4715
S'International Bancshares Corp'
p4716
sS'MTW'
p4717
S'Manitowoc Company Inc'
p4718
sS'NHTC'
p4719
S'Natural Health Trends Corp'
p4720
sS'MTH'
p4721
S'Meritage Homes Corp'
p4722
sS'MTN'
p4723
S'Vail Resorts Inc'
p4724
sS'MTB'
p4725
S'M&T Bank Corp'
p4726
sS'HLIT'
p4727
S'Harmonic Inc'
p4728
sS'MTG'
p4729
S'MGIC Investment Corp'
p4730
sS'MTD'
p4731
S'Mettler-Toledo International Inc'
p4732
sS'ARR'
p4733
S'ARMOUR Residential REIT Inc'
p4734
sS'OKE'
p4735
S'ONEOK Inc'
p4736
sS'ARW'
p4737
S'Arrow Electronics Inc'
p4738
sS'GKOS'
p4739
S'Glaukos Corp'
p4740
sS'CSCO'
p4741
S'Cisco Systems Inc'
p4742
sS'ARA'
p4743
S'American Renal Associates Holdings Inc'
p4744
sS'ARE'
p4745
S'Alexandria Real Estate Equities Inc'
p4746
sS'CFMS'
p4747
S'ConforMIS Inc'
p4748
sS'ARI'
p4749
S'Apollo Commercial Real Estate Finance Inc'
p4750
sS'SGYP'
p4751
S'Synergy Pharmaceuticals Inc'
p4752
sS'MPWR'
p4753
S'Monolithic Power Systems Inc'
p4754
sS'BG'
p4755
S'Bunge Ltd'
p4756
sS'CPSI'
p4757
S'Computer Programs and Systems Inc'
p4758
sS'BC'
p4759
S'Brunswick Corp'
p4760
sS'BL'
p4761
S'Blackline Inc'
p4762
sS'BH'
p4763
S'Biglari Holdings Inc'
p4764
sS'CRVS'
p4765
S'Corvus Pharmaceuticals Inc'
p4766
sS'BK'
p4767
S'Bank of New York Mellon Corp'
p4768
sS'BW'
p4769
S'Babcock & Wilcox Enterprises Inc'
p4770
sS'BR'
p4771
S'Broadridge Financial Solutions Inc'
p4772
sS'TIF'
p4773
S'Tiffany & Co'
p4774
sS'BY'
p4775
S'Byline Bancorp Inc'
p4776
sS'NNN'
p4777
S'National Retail Properties Inc'
p4778
sS'NNI'
p4779
S'Nelnet Inc'
p4780
sS'ATHN'
p4781
S'athenahealth Inc'
p4782
sS'QTNA'
p4783
S'Quantenna Communications Inc'
p4784
sS'HSII'
p4785
S'Heidrick & Struggles International Inc'
p4786
sS'APEI'
p4787
S'American Public Education Inc'
p4788
sS'KHC'
p4789
S'Kraft Heinz Co'
p4790
sS'HSIC'
p4791
S'Henry Schein Inc'
p4792
sS'TYL'
p4793
S'Tyler Technologies Inc'
p4794
sS'BOLD'
p4795
S'Audentes Therapeutics Inc'
p4796
sS'NAVG'
p4797
S'Navigators Group Inc'
p4798
sS'NAVI'
p4799
S'Navient Corp'
p4800
sS'VRNT'
p4801
S'Verint Systems Inc'
p4802
sS'VIA'
p4803
S'Viacom Inc'
p4804
sS'ISCA'
p4805
S'International Speedway Corp'
p4806
sS'T'
p4807
S'AT&T Inc'
p4808
sS'LOGM'
p4809
S'LogMeIn Inc'
p4810
sS'HAL'
p4811
S'Halliburton Co'
p4812
sS'VRSN'
p4813
S'Verisign Inc'
p4814
sS'VRSK'
p4815
S'Verisk Analytics Inc'
p4816
sS'CINF'
p4817
S'Cincinnati Financial Corp'
p4818
sS'TREE'
p4819
S'LendingTree Inc'
p4820
sS'PRAA'
p4821
S'PRA Group Inc'
p4822
sS'TREX'
p4823
S'Trex Company Inc'
p4824
sS'GSBC'
p4825
S'Great Southern Bancorp Inc'
p4826
sS'PRAH'
p4827
S'PRA Health Sciences Inc'
p4828
sS'OFIX'
p4829
S'Orthofix International NV'
p4830
sS'EEX'
p4831
S'Emerald Expositions Events Inc'
p4832
sS'GLUU'
p4833
S'Glu Mobile Inc'
p4834
sS'EEQ'
p4835
S'Enbridge Energy Management LLC'
p4836
sS'LLY'
p4837
S'Eli Lilly and Co'
p4838
sS'ROK'
p4839
S'Rockwell Automation Inc'
p4840
sS'ROL'
p4841
S'Rollins Inc'
p4842
sS'BRK.B'
p4843
S'Berkshire Hathaway Inc'
p4844
sS'ICFI'
p4845
S'ICF International Inc'
p4846
sS'HRTG'
p4847
S'Heritage Insurance Holdings Inc'
p4848
sS'OSK'
p4849
S'Oshkosh Corp'
p4850
sS'LLL'
p4851
S'L3 Technologies Inc'
p4852
sS'ROP'
p4853
S'Roper Technologies Inc'
p4854
sS'FRTA'
p4855
S'Forterra Inc'
p4856
sS'KMX'
p4857
S'Carmax Inc'
p4858
sS'BDC'
p4859
S'Belden Inc'
p4860
sS'DHIL'
p4861
S'Diamond Hill Investment Group Inc'
p4862
sS'BDN'
p4863
S'Brandywine Realty Trust'
p4864
sS'BERY'
p4865
S'Berry Global Group Inc'
p4866
sS'LABL'
p4867
S'Multi-Color Corp'
p4868
sS'CNX'
p4869
S'CNX Resources Corp'
p4870
sS'CRUS'
p4871
S'Cirrus Logic Inc'
p4872
sS'BDX'
p4873
S'Becton Dickinson and Co'
p4874
sS'ECPG'
p4875
S'Encore Capital Group Inc'
p4876
sS'ABBV'
p4877
S'AbbVie Inc'
p4878
sS'DWDP'
p4879
S'DowDuPont Inc'
p4880
sS'LRN'
p4881
S'K12 Inc'
p4882
sS'MDLZ'
p4883
S'Mondelez International Inc'
p4884
sS'UE'
p4885
S'Urban Edge Properties'
p4886
sS'QLYS'
p4887
S'Qualys Inc'
p4888
sS'UA'
p4889
S'Under Armour Inc'
p4890
sS'FOSL'
p4891
S'Fossil Group Inc'
p4892
sS'IDT'
p4893
S'IDT Corp'
p4894
sS'IMDZ'
p4895
S'Immune Design Corp'
p4896
sS'STOR'
p4897
S'STORE Capital Corp'
p4898
sS'IRDM'
p4899
S'Iridium Communications Inc'
p4900
sS'ICHR'
p4901
S'Ichor Holdings Ltd'
p4902
sS'IDA'
p4903
S'Idacorp Inc'
p4904
sS'PMT'
p4905
S'PennyMac Mortgage Investment Trust'
p4906
sS'QEP'
p4907
S'QEP Resources Inc'
p4908
sS'FAST'
p4909
S'Fastenal Co'
p4910
sS'CAKE'
p4911
S'Cheesecake Factory Inc'
p4912
sS'SKYW'
p4913
S'SkyWest Inc'
p4914
sS'ORLY'
p4915
S"O'Reilly Automotive Inc"
p4916
sS'MINI'
p4917
S'Mobile Mini Inc'
p4918
sS'LULU'
p4919
S'Lululemon Athletica Inc'
p4920
sS'CUZ'
p4921
S'Cousins Properties Inc'
p4922
sS'TMST'
p4923
S'TimkenSteel Corp'
p4924
sS'FET'
p4925
S'Forum Energy Technologies Inc'
p4926
sS'CUB'
p4927
S'Cubic Corp'
p4928
sS'VTR'
p4929
S'Ventas Inc'
p4930
sS'WIN'
p4931
S'Windstream Holdings Inc'
p4932
sS'COLM'
p4933
S'Columbia Sportswear Co'
p4934
sS'DRE'
p4935
S'Duke Realty Corp'
p4936
sS'RTRX'
p4937
S'Retrophin Inc'
p4938
sS'CIA'
p4939
S'Citizens Inc'
p4940
sS'PETS'
p4941
S'Petmed Express Inc'
p4942
sS'CJ'
p4943
S'C&J Energy Services Inc'
p4944
sS'USLM'
p4945
S'United States Lime & Minerals Inc'
p4946
sS'CIO'
p4947
S'City Office REIT Inc'
p4948
sS'CIM'
p4949
S'Chimera Investment Corp'
p4950
sS'CATM'
p4951
S'Cardtronics PLC'
p4952
sS'AXON'
p4953
S'Axovant Sciences Ltd'
p4954
sS'CIR'
p4955
S'CIRCOR International Inc'
p4956
sS'MSM'
p4957
S'MSC Industrial Direct Co Inc'
p4958
sS'MTSI'
p4959
S'MACOM Technology Solutions Holdings Inc'
p4960
sS'MSI'
p4961
S'Motorola Solutions Inc'
p4962
sS'CIT'
p4963
S'CIT Group Inc'
p4964
sS'MSG'
p4965
S'Madison Square Garden Co'
p4966
sS'MTSC'
p4967
S'MTS Systems Corp'
p4968
sS'MSA'
p4969
S'MSA Safety Inc'
p4970
sS'DAL'
p4971
S'Delta Air Lines Inc'
p4972
sS'DAN'
p4973
S'Dana Inc'
p4974
sS'SRE'
p4975
S'Sempra Energy'
p4976
sS'ORCL'
p4977
S'Oracle Corp'
p4978
sS'BPOP'
p4979
S'Popular Inc'
p4980
sS'PLSE'
p4981
S'Pulse Biosciences Inc'
p4982
sS'DAR'
p4983
S'Darling Ingredients Inc'
p4984
sS'PETX'
p4985
S'Aratana Therapeutics Inc'
p4986
sS'JCOM'
p4987
S'j2 Global Inc'
p4988
sS'PLAY'
p4989
S"Dave & Buster's Entertainment Inc"
p4990
sS'CUBE'
p4991
S'CubeSmart'
p4992
sS'VCRA'
p4993
S'Vocera Communications Inc'
p4994
sS'ZAYO'
p4995
S'Zayo Group Holdings Inc'
p4996
sS'COKE'
p4997
S'Coca-Cola Bottling Co Consolidated'
p4998
sS'THFF'
p4999
S'First Financial Corp'
p5000
sS'CUBI'
p5001
S'Customers Bancorp Inc'
p5002
sS'CSRA'
p5003
S'CSRA Inc'
p5004
sS'PLAB'
p5005
S'Photronics Inc'
p5006
sS'MACK'
p5007
S'Merrimack Pharmaceuticals Inc'
p5008
sS'EQIX'
p5009
S'Equinix Inc'
p5010
sS'QDEL'
p5011
S'Quidel Corp'
p5012
sS'DXC'
p5013
S'DXC Technology Co'
p5014
sS'ANCX'
p5015
S'Access National Corp'
p5016
sS'ENVA'
p5017
S'Enova International Inc'
p5018
s.